ccopy_reg
_reconstructor
p0
(cpandas.core.frame
DataFrame
p1
c__builtin__
object
p2
Ntp3
Rp4
(dp5
S'_metadata'
p6
(lp7
sS'_typ'
p8
S'dataframe'
p9
sS'_data'
p10
g0
(cpandas.core.internals
BlockManager
p11
g2
Ntp12
Rp13
((lp14
cpandas.core.indexes.base
_new_Index
p15
(cpandas.core.indexes.multi
MultiIndex
p16
(dp17
S'labels'
p18
(lp19
cnumpy.core.multiarray
_reconstruct
p20
(cpandas.core.indexes.frozen
FrozenNDArray
p21
(I0
tp22
S'b'
p23
tp24
Rp25
(I1
(I9
tp26
cnumpy
dtype
p27
(S'i1'
p28
I0
I1
tp29
Rp30
(I3
S'|'
p31
NNNI-1
I-1
I0
tp32
bI00
S'\x00\x00\x00\x01\x01\x01\x02\x02\x02'
p33
tp34
bag20
(g21
(I0
tp35
g23
tp36
Rp37
(I1
(I9
tp38
g30
I00
S'\x00\x01\x02\x00\x01\x02\x00\x01\x02'
p39
tp40
basS'names'
p41
(lp42
NaNasS'levels'
p43
(lp44
g15
(cpandas.core.indexes.base
Index
p45
(dp46
S'data'
p47
g20
(cnumpy
ndarray
p48
(I0
tp49
g23
tp50
Rp51
(I1
(I3
tp52
g27
(S'O8'
p53
I0
I1
tp54
Rp55
(I3
S'|'
p56
NNNI-1
I-1
I63
tp57
bI00
(lp58
S'eng-us'
p59
aS'ger'
p60
aS'spa'
p61
atp62
bsS'name'
p63
Nstp64
Rp65
ag15
(g45
(dp66
g47
g20
(g48
(I0
tp67
g23
tp68
Rp69
(I1
(I3
tp70
g55
I00
(lp71
S'CD'
p72
aS'CDtype'
p73
aS'CDS'
p74
atp75
bsg63
Nstp76
Rp77
asS'sortorder'
p78
Nstp79
Rp80
ag15
(cpandas.core.indexes.range
RangeIndex
p81
(dp82
S'start'
p83
I0
sS'step'
p84
I1
sS'stop'
p85
I1656
sg63
Nstp86
Rp87
a(lp88
g20
(g48
(I0
tp89
g23
tp90
Rp91
(I1
(I9
I1656
tp92
g55
I00
(lp93
S'eveRy'
p94
aS'everY'
p95
aS'evEry'
p96
aS'eveRY'
p97
aS'every'
p98
aS'Will never end'
p99
aS'Will Never End'
p100
aS'HaS to'
p101
aS'Has TO'
p102
aS'Has to'
p103
aS'Has To'
p104
aS'my bad'
p105
aS'my BAD'
p106
aS'my Bad'
p107
aS'She will know'
p108
aS'She Does not Know'
p109
aS'She does not know'
p110
aS'Because of Me'
p111
aS'Because of me'
p112
aS'They will not believe'
p113
aS'he Never'
p114
aS'he NEVER'
p115
aS'he neVer'
p116
aS'he never'
p117
aS'he is An'
p118
aS'he IS an'
p119
aS'he is an'
p120
aS'he Is an'
p121
aS'he is AN'
p122
aS'We NEVER'
p123
aS'We never'
p124
aS'We neVer'
p125
aS'We Never'
p126
aS'Nobody thinks'
p127
aS'Nobody Thinks'
p128
aS'nobody will think'
p129
aS'everyone will think'
p130
aS'He Is A'
p131
aS'He IS A'
p132
aS'He iS a'
p133
aS'He is A'
p134
aS'He IS a'
p135
aS'He Is a'
p136
aS'He is a'
p137
aS'he IS a'
p138
aS'he iS a'
p139
aS'he is A'
p140
aS'he Is a'
p141
aS'he is a'
p142
aS'Everyone will know'
p143
aS'Nobody will know'
p144
aS'nobody KNOWS'
p145
aS'nobody Knows'
p146
aS'nobody knows'
p147
aS'we neVer'
p148
aS'we Never'
p149
aS'we NEVER'
p150
aS'we never'
p151
aS'we NEveR'
p152
aS'He Is An'
p153
aS'He Is an'
p154
aS'He is An'
p155
aS'He is an'
p156
aS'He IS an'
p157
aS'He Never'
p158
aS'He neVer'
p159
aS'He NEVER'
p160
aS'He never'
p161
aS'they will think'
p162
aS'She does not believe'
p163
aS'because of me'
p164
aS'because of ME'
p165
aS'because of Me'
p166
aS'because Of me'
p167
aS'My Bad'
p168
aS'My bad'
p169
aS'she will believe'
p170
aS'has tO'
p171
aS'haS to'
p172
aS'has TO'
p173
aS'has To'
p174
aS'has to'
p175
aS'hAs to'
p176
aS'will never end'
p177
aS'EVERY'
p178
aS'Every'
p179
aS'EvERY'
p180
aS'EVEry'
p181
aS'EVery'
p182
aS'EVErY'
p183
aS'EVeRY'
p184
aS'EveRY'
p185
aS'EVERy'
p186
aS'EvEry'
p187
aS'EverY'
p188
aS'EveRy'
p189
aS'EvERy'
p190
aS'Will Be a Disaster'
p191
aS'onLy'
p192
aS'oNly'
p193
aS'onlY'
p194
aS'oNlY'
p195
aS'onLY'
p196
aS'oNLy'
p197
aS'only'
p198
aS'oNLY'
p199
aS'nOwhere'
p200
aS'nowhere'
p201
aS'noWhere'
p202
aS'nOWhere'
p203
aS'Because of My'
p204
aS'Because of my'
p205
aS'she does not Know'
p206
aS'she does not know'
p207
aS'she will know'
p208
aS'All my fault'
p209
aS'All My Fault'
p210
aS'she Is always'
p211
aS'she is always'
p212
aS'They neVer'
p213
aS'They Never'
p214
aS'They NEVER'
p215
aS'They never'
p216
aS'She is an'
p217
aS'she KNOWS'
p218
aS'she knows'
p219
aS'she knoWs'
p220
aS'she Knows'
p221
aS'Nobody will think'
p222
aS'nobody thinks'
p223
aS'i am A'
p224
aS'i am a'
p225
aS'i AM A'
p226
aS'i Am a'
p227
aS'I am a'
p228
aS'I am A'
p229
aS'nobody will believe'
p230
aS'he Believes'
p231
aS'he believes'
p232
aS'he BELIEVES'
p233
aS'he belieVes'
p234
aS'She Believes'
p235
aS'She believes'
p236
aS'she Is an'
p237
aS'she is an'
p238
aS'she is An'
p239
aS'they neVer'
p240
aS'they Never'
p241
aS'they NEVER'
p242
aS'they never'
p243
aS'they Are always'
p244
aS'they are alWays'
p245
aS'they are always'
p246
aS'they are Always'
p247
aS'they are ALWAYS'
p248
aS'she will think'
p249
aS'all my fault'
p250
aS'because of My'
p251
aS'because of MY'
p252
aS'because of my'
p253
aS'because Of my'
p254
aS'She does not think'
p255
aS'Nowhere'
p256
aS'NOwhere'
p257
aS'NOWhere'
p258
aS'NOWHERE'
p259
aS'NoWhere'
p260
aS'NowHERE'
p261
aS'NowHere'
p262
aS'NoWHERE'
p263
aS'ONly'
p264
aS'Only'
p265
aS'OnLY'
p266
aS'OnLy'
p267
aS'ONlY'
p268
aS'OnlY'
p269
aS'ONLY'
p270
aS'ONLy'
p271
aS'will be a disaster'
p272
aS'alL'
p273
aS'all'
p274
aS'aLl'
p275
aS'aLL'
p276
aS'will be horrible'
p277
aS'everyone'
p278
aS'everYone'
p279
aS'everyOne'
p280
aS'everyoNe'
p281
aS'eveRyone'
p282
aS'Because my'
p283
aS'Because MY'
p284
aS'Because My'
p285
aS'she does not believe'
p286
aS'i am responsible'
p287
aS'She will not know'
p288
aS'he will know'
p289
aS'you Never'
p290
aS'you NEVER'
p291
aS'you neVer'
p292
aS'you never'
p293
aS'It iS an'
p294
aS'It is AN'
p295
aS'It Is an'
p296
aS'It is an'
p297
aS'It IS an'
p298
aS'It IS AN'
p299
aS'It is An'
p300
aS'It Is AN'
p301
aS'It Is An'
p302
aS'he THINKS'
p303
aS'he thinkS'
p304
aS'he Thinks'
p305
aS'he thinks'
p306
aS'Nobody knows'
p307
aS'Nobody Knows'
p308
aS'Nobody KNows'
p309
aS'NoboDY KNows'
p310
aS'She is A'
p311
aS'She is a'
p312
aS'she is a'
p313
aS'she IS a'
p314
aS'she is A'
p315
aS'she Is a'
p316
aS'Nobody believes'
p317
aS'Nobody Believes'
p318
aS'He knOWs'
p319
aS'He knoWs'
p320
aS'He knows'
p321
aS'He knOWS'
p322
aS'He KNOWS'
p323
aS'He knowS'
p324
aS'He knoWS'
p325
aS'He Knows'
p326
aS'it is An'
p327
aS'it iS an'
p328
aS'it is an'
p329
aS'it is AN'
p330
aS'You NEVER'
p331
aS'YOU NEVER'
p332
aS'You never'
p333
aS'You neVer'
p334
aS'YOU Never'
p335
aS'YOU never'
p336
aS'You NEveR'
p337
aS'YoU NEVER'
p338
aS'You Never'
p339
aS'YoU never'
p340
aS'he will think'
p341
aS'I feel responsible'
p342
aS'She will not believe'
p343
aS'She Thinks'
p344
aS'She thinks'
p345
aS'I am responsible'
p346
aS'I am reSponsible'
p347
aS'I am Responsible'
p348
aS'because my'
p349
aS'because My'
p350
aS'because MY'
p351
aS'EVERYOne'
p352
aS'EveRYONE'
p353
aS'EVERYonE'
p354
aS'EveRyone'
p355
aS'Everyone'
p356
aS'EVeryone'
p357
aS'EvERYONE'
p358
aS'EVeryOne'
p359
aS'EveryOne'
p360
aS'EvERYoNE'
p361
aS'EveRYoNE'
p362
aS'EveRYonE'
p363
aS'EVERYoNE'
p364
aS'EVERYone'
p365
aS'EveRYone'
p366
aS'EVERyONE'
p367
aS'EVERYONE'
p368
aS'EvEryonE'
p369
aS'AlL'
p370
aS'ALl'
p371
aS'ALL'
p372
aS'All'
p373
aS'EveRYBoDY'
p374
aS'EveRYBODY'
p375
aS'EveryBody'
p376
aS'EvERYBODY'
p377
aS'EverybOdy'
p378
aS'EVERYbody'
p379
aS'EVERYBODy'
p380
aS'EVERYBoDY'
p381
aS'EVERYBODY'
p382
aS'Everybody'
p383
aS'EveRYBODy'
p384
aS'EveRYbody'
p385
aS'EVerybody'
p386
aS'EveRYBody'
p387
aS'EVERYBody'
p388
aS'EveRybody'
p389
aS'EveryBODY'
p390
aS'EveRYBoDy'
p391
aS'EvERYBoDY'
p392
aS'they do not believe'
p393
aS'She will think'
p394
aS'All my doing'
p395
aS'Blame me'
p396
aS'Blame Me'
p397
aS'She knoWS'
p398
aS'She Knows'
p399
aS'She KNOWS'
p400
aS'She knows'
p401
aS'They are an'
p402
aS'They are An'
p403
aS'They Are An'
p404
aS'They Are an'
p405
aS'She NEVER'
p406
aS'She neVer'
p407
aS'She never'
p408
aS'She Never'
p409
aS'If It Only'
p410
aS'If it only'
p411
aS'If It only'
p412
aS'Everyone will think'
p413
aS'He belieVes'
p414
aS'He Believes'
p415
aS'He believes'
p416
aS'They Are A'
p417
aS'They are A'
p418
aS'They are a'
p419
aS'They Are a'
p420
aS'they are A'
p421
aS'they are a'
p422
aS'they Are a'
p423
aS'they ARE a'
p424
aS'he knoWS'
p425
aS'he knoWs'
p426
aS'he KNows'
p427
aS'he knOWS'
p428
aS'he KNOWS'
p429
aS'he knowS'
p430
aS'he knows'
p431
aS'he Knows'
p432
aS'he knOWs'
p433
aS'nobody believes'
p434
aS'everyone believes'
p435
aS'she Never'
p436
aS'she never'
p437
aS'she neVer'
p438
aS'she NEVER'
p439
aS'they are an'
p440
aS'they are AN'
p441
aS'they are An'
p442
aS'blame me'
p443
aS'blame Me'
p444
aS'blame ME'
p445
aS'she Thinks'
p446
aS'she thinks'
p447
aS'she THINKS'
p448
aS'she will not believe'
p449
aS'all my doing'
p450
aS'they do not know'
p451
aS'they do not knoW'
p452
aS'they do NOT know'
p453
aS'they do not Know'
p454
aS'they do not KNOW'
p455
aS'will be a catastrophe'
p456
aS'everybOdy'
p457
aS'everybody'
p458
aS'everyBody'
p459
aS'because it feels'
p460
aS'because It feels'
p461
aS'because i feel'
p462
aS'because I feel'
p463
aS'but I feel'
p464
aS'but I Feel'
p465
aS'they will not'
p466
aS'they will NOT'
p467
aS'they will Not'
p468
aS'you knoW'
p469
aS'you KnOW'
p470
aS'you kNow'
p471
aS'you KNow'
p472
aS'yoU know'
p473
aS'you KnoW'
p474
aS'you knOw'
p475
aS'you knOW'
p476
aS'you Know'
p477
aS'you know'
p478
aS'you KNOW'
p479
aS'all the time'
p480
aS'all the Time'
p481
aS'all the TIME'
p482
aS'They will noT'
p483
aS'They will Not'
p484
aS'They will not'
p485
aS'They will NOT'
p486
aS'we will not know'
p487
aS'every single one of them'
p488
aS'every single One of them'
p489
aS'a total'
p490
aS'a TOTAL'
p491
aS'a totaL'
p492
aS'a ToTal'
p493
aS'a ToTAL'
p494
aS'a tOtal'
p495
aS'a Total'
p496
aS'a HUGE'
p497
aS'a Huge'
p498
aS'a huge'
p499
aS'a HuGE'
p500
aS'Not IMPORTANT'
p501
aS'Not Important'
p502
aS'Not important'
p503
aS'No Matter'
p504
aS'No maTTer'
p505
aS'No MATTER'
p506
aS'No matter'
p507
aS'will go wrong'
p508
aS'a Horrible'
p509
aS'a HORRIBLE'
p510
aS'a horrible'
p511
aS'A horrible'
p512
aS'A HoRRIBLE'
p513
aS'A Horrible'
p514
aS'A HORRIBLE'
p515
aS'Will Go Wrong'
p516
aS'The only Thing'
p517
aS'The only thing'
p518
aS'not count'
p519
aS'not COUnt'
p520
aS'not Count'
p521
aS'not COunt'
p522
aS'not COUNT'
p523
aS'A HUGE'
p524
aS'A Huge'
p525
aS'A HuGE'
p526
aS'A huge'
p527
aS'A TOTAL'
p528
aS'A totAL'
p529
aS'A ToTal'
p530
aS'A TOTAl'
p531
aS'A ToTAL'
p532
aS'A TotAL'
p533
aS'A total'
p534
aS'A Total'
p535
aS'every single one of you'
p536
aS'It Will Not'
p537
aS'It WILL NOT'
p538
aS'It will NOT'
p539
aS'It will not'
p540
aS'It Will not'
p541
aS'It will Not'
p542
aS'we will not think'
p543
aS'YOU Think'
p544
aS'YoU think'
p545
aS'You THINK'
p546
aS'YoU THINK'
p547
aS'YOU THINK'
p548
aS'You think'
p549
aS'YOU think'
p550
aS'You Think'
p551
aS'always happens'
p552
aS'you will Not'
p553
aS'you will not'
p554
aS'you will NOT'
p555
aS'since I feel'
p556
aS'but it feels'
p557
aS'Still Feels'
p558
aS'Still feels'
p559
aS'since it feels'
p560
aS'great but'
p561
aS'great But'
p562
aS'great BUT'
p563
aS'We will not know'
p564
aS'That will not'
p565
aS'That will Not'
p566
aS'always Like'
p567
aS'always like'
p568
aS'You KNow'
p569
aS'You knOw'
p570
aS'YoU Know'
p571
aS'YOU knOW'
p572
aS'You Know'
p573
aS'You KnoW'
p574
aS'YOU kNOW'
p575
aS'YOU KnOW'
p576
aS'YOU KNow'
p577
aS'YOU KNOW'
p578
aS'YOu know'
p579
aS'YOu KNOW'
p580
aS'YoU KNoW'
p581
aS'You knoW'
p582
aS'YoU KnoW'
p583
aS'You knOW'
p584
aS'YoU know'
p585
aS'YOU Know'
p586
aS'YoU KNOW'
p587
aS'You kNow'
p588
aS'YOU know'
p589
aS'YOU KNOw'
p590
aS'YOu Know'
p591
aS'You know'
p592
aS'YoU KNow'
p593
aS'You KNOW'
p594
aS'You KnOW'
p595
aS'We Will Know'
p596
aS'We Will know'
p597
aS'We will know'
p598
aS'an undesirable'
p599
aS'an Undesirable'
p600
aS'an undeSirable'
p601
aS'A Completely'
p602
aS'A completely'
p603
aS'A compleTELY'
p604
aS'A COMPLETELY'
p605
aS'A CoMPLETELY'
p606
aS'a majOr'
p607
aS'a MAJOR'
p608
aS'a MaJor'
p609
aS'a major'
p610
aS'a maJor'
p611
aS'a Major'
p612
aS'a MAJoR'
p613
aS'no maTTer'
p614
aS'no MATTER'
p615
aS'no matter'
p616
aS'no Matter'
p617
aS'not IMPORTANT'
p618
aS'not Important'
p619
aS'not imPortant'
p620
aS'not important'
p621
aS'a Terrible'
p622
aS'a terrible'
p623
aS'a TERRIBLE'
p624
aS'will End'
p625
aS'will end'
p626
aS'will END'
p627
aS'if i just'
p628
aS'only the worst'
p629
aS'only the Worst'
p630
aS'Will End'
p631
aS'Will end'
p632
aS'A TERRIBLE'
p633
aS'A terrible'
p634
aS'A Terrible'
p635
aS'BEST'
p636
aS'BeSt'
p637
aS'BeST'
p638
aS'BEsT'
p639
aS'BESt'
p640
aS'BesT'
p641
aS'BEst'
p642
aS'Best'
p643
aS'Not matter'
p644
aS'Not Matter'
p645
aS'A maJor'
p646
aS'A Major'
p647
aS'A MAjor'
p648
aS'A MAJoR'
p649
aS'A MAJOR'
p650
aS'A major'
p651
aS'A MAJor'
p652
aS'a comPletely'
p653
aS'a Completely'
p654
aS'a COMPLETELY'
p655
aS'a completely'
p656
aS'a COmpletely'
p657
aS'An Undesirable'
p658
aS'An undesirable'
p659
aS'we will believe'
p660
aS'Always Happens'
p661
aS'Always happens'
p662
aS'you BELIEVE'
p663
aS'you believe'
p664
aS'you Believe'
p665
aS'you belieVe'
p666
aS'we will not believe'
p667
aS'it will not'
p668
aS'it will Not'
p669
aS'it will nOt'
p670
aS'it will NOT'
p671
aS'still feels'
p672
aS'But it feels'
p673
aS'acceptable yet'
p674
aS'acceptable But'
p675
aS'acceptable but'
p676
aS'Because I feel'
p677
aS'Because I Feel'
p678
aS'good but'
p679
aS'good But'
p680
aS'good BUT'
p681
aS'We Know'
p682
aS'We knoW'
p683
aS'We KNOW'
p684
aS'We KnOW'
p685
aS'We knOW'
p686
aS'We know'
p687
aS'We KNow'
p688
aS'We KnoW'
p689
aS'We knOw'
p690
aS'We kNOw'
p691
aS'he will not'
p692
aS'he will Not'
p693
aS'he will NOT'
p694
aS'we will know'
p695
aS'we will Know'
p696
aS'we will KNOW'
p697
aS'you THINK'
p698
aS'you think'
p699
aS'you thinK'
p700
aS'yoU think'
p701
aS'you tHink'
p702
aS'you thInk'
p703
aS'you Think'
p704
aS'all oF them'
p705
aS'all of them'
p706
aS'all of Them'
p707
aS'all of THEM'
p708
aS'a burden'
p709
aS'a Burden'
p710
aS'a BURDEN'
p711
aS'A totally'
p712
aS'A TOTALLY'
p713
aS'A Totally'
p714
aS'A helpless'
p715
aS'A Helpless'
p716
aS'A HELPLESS'
p717
aS'nothing good'
p718
aS'nothing Good'
p719
aS'a worthless'
p720
aS'a Worthless'
p721
aS'will not happen'
p722
aS'the only thing'
p723
aS'the only Thing'
p724
aS'wORST'
p725
aS'wOrst'
p726
aS'worST'
p727
aS'wOrSt'
p728
aS'worSt'
p729
aS'worst'
p730
aS'worsT'
p731
aS'woRsT'
p732
aS'the one Thing'
p733
aS'the one thing'
p734
aS'Will not happen'
p735
aS'Will Not Happen'
p736
aS'Will not Happen'
p737
aS'A WORTHLESS'
p738
aS'A worthless'
p739
aS'A Worthless'
p740
aS'Nothing Right'
p741
aS'Nothing right'
p742
aS'a Helpless'
p743
aS'a helpless'
p744
aS'a Totally'
p745
aS'a TOTALLY'
p746
aS'a totally'
p747
aS'A BURDEN'
p748
aS'A burden'
p749
aS'A Burden'
p750
aS'you do not Believe'
p751
aS'you do not believe'
p752
aS'you do not BELIEVE'
p753
aS'All THE TIME'
p754
aS'All the Time'
p755
aS'All The Time'
p756
aS'All the time'
p757
aS'All The time'
p758
aS'she will NOT'
p759
aS'she will Not'
p760
aS'she will not'
p761
aS'We will think'
p762
aS'We Will Think'
p763
aS'we THINK'
p764
aS'we Think'
p765
aS'we think'
p766
aS'we thinK'
p767
aS'OK BUT'
p768
aS'OK But'
p769
aS'OK but'
p770
aS'Fine But'
p771
aS'Fine but'
p772
aS'NOR'
p773
aS'NOr'
p774
aS'Nor'
p775
aS'NoR'
p776
aS'Good But'
p777
aS'Good but'
p778
aS'GooD BUT'
p779
aS'Good BUT'
p780
aS'Since I feel'
p781
aS'You Will not believe'
p782
aS'You Will not Believe'
p783
aS'You will not believe'
p784
aS'They ALWAYS'
p785
aS'They alWays'
p786
aS'They always'
p787
aS'They Always'
p788
aS'All of them'
p789
aS'All Of Them'
p790
aS'All Of them'
p791
aS'All of Them'
p792
aS'You Do Not Know'
p793
aS'You do not knoW'
p794
aS'You Do not know'
p795
aS'You do not Know'
p796
aS'You Do not KNow'
p797
aS'You Do Not know'
p798
aS'You DO NOT KNOW'
p799
aS'You do not KNOW'
p800
aS'You DO NOT know'
p801
aS'You do not know'
p802
aS'You Do not Know'
p803
aS'We will not believe'
p804
aS'He will Not'
p805
aS'He will not'
p806
aS'He Will Not'
p807
aS'He WILL NOT'
p808
aS'He will NOT'
p809
aS'He Will not'
p810
aS'a weaK'
p811
aS'a weak'
p812
aS'a Weak'
p813
aS'a WEAK'
p814
aS'A compleTE'
p815
aS'A coMPLETE'
p816
aS'A CoMPLETE'
p817
aS'A COmplete'
p818
aS'A COMplete'
p819
aS'A comPLETE'
p820
aS'A COMPLETE'
p821
aS'A compleTe'
p822
aS'A Complete'
p823
aS'A comPlete'
p824
aS'A ComPLETE'
p825
aS'A complete'
p826
aS'A CompleTE'
p827
aS'Will Be Impossible'
p828
aS'Will be impossible'
p829
aS'An unlovable'
p830
aS'bESt'
p831
aS'bEST'
p832
aS'best'
p833
aS'besT'
p834
aS'bEst'
p835
aS'bEsT'
p836
aS'beSt'
p837
aS'beST'
p838
aS'I see only'
p839
aS'I see Only'
p840
aS'The one Thing'
p841
aS'The one thing'
p842
aS'WOrst'
p843
aS'WoRsT'
p844
aS'WORsT'
p845
aS'WORSt'
p846
aS'Worst'
p847
aS'WORST'
p848
aS'WoRST'
p849
aS'WoRst'
p850
aS'WorsT'
p851
aS'WorSt'
p852
aS'WOrSt'
p853
aS'an Unlovable'
p854
aS'an unlovable'
p855
aS'will be impossible'
p856
aS'will be Impossible'
p857
aS'will be impOssible'
p858
aS'will be imposSible'
p859
aS'a Complete'
p860
aS'a comPlete'
p861
aS'a cOmplete'
p862
aS'a COMPLETE'
p863
aS'a compleTe'
p864
aS'a complete'
p865
aS'a CoMPLETE'
p866
aS'a COmplete'
p867
aS'a compleTE'
p868
aS'A WEAK'
p869
aS'A Weak'
p870
aS'A weak'
p871
aS'A weAK'
p872
aS'we will think'
p873
aS'that will NOT'
p874
aS'that will not'
p875
aS'that will Not'
p876
aS'All of the time'
p877
aS'All of the Time'
p878
aS'You do not believe'
p879
aS'You Do Not Believe'
p880
aS'You Do not Believe'
p881
aS'She always'
p882
aS'She Always'
p883
aS'She alWays'
p884
aS'She ALWAYS'
p885
aS'you will not know'
p886
aS'Great But'
p887
aS'Great but'
p888
aS'nOr'
p889
aS'nor'
p890
aS'nOR'
p891
aS'noR'
p892
aS'great Yet'
p893
aS'great yet'
p894
aS'Not All That'
p895
aS'Not all that'
p896
aS'Not All that'
p897
aS'Either Or'
p898
aS'Either or'
p899
aS'the WOrst'
p900
aS'the Worst'
p901
aS'the wOrSt'
p902
aS'the worst'
p903
aS'the wOrst'
p904
aS'the WOrSt'
p905
aS'the WorSt'
p906
aS'the WORST'
p907
aS'the worSt'
p908
aS'not that Great'
p909
aS'not that GREAT'
p910
aS'not that great'
p911
aS'You Will not Know'
p912
aS'You will not know'
p913
aS'you will KNOW'
p914
aS'you will Know'
p915
aS'you will know'
p916
aS'we do NOT know'
p917
aS'we do not knoW'
p918
aS'we do not know'
p919
aS'we do not Know'
p920
aS'we do not KNOW'
p921
aS'he Always'
p922
aS'he ALWAYS'
p923
aS'he alWays'
p924
aS'he always'
p925
aS'COmpletely'
p926
aS'CoMPLETELY'
p927
aS'COMPLETELY'
p928
aS'COMpletely'
p929
aS'COMPLETEly'
p930
aS'COMPLETELy'
p931
aS'ComPLETELY'
p932
aS'ComPletely'
p933
aS'Completely'
p934
aS'COMPLetely'
p935
aS'we Know'
p936
aS'we knOw'
p937
aS'we knOW'
p938
aS'we KNOW'
p939
aS'we KNow'
p940
aS'we know'
p941
aS'we kNow'
p942
aS'we knoW'
p943
aS'all of the Time'
p944
aS'all of the time'
p945
aS'an inCompetent'
p946
aS'an Incompetent'
p947
aS'an inCOmpetent'
p948
aS'an incompetent'
p949
aS'a damaged'
p950
aS'a Damaged'
p951
aS'Nothing Good'
p952
aS'Nothing good'
p953
aS'Completely wrong'
p954
aS'Completely Wrong'
p955
aS'will be terrible'
p956
aS'completely bad'
p957
aS'Can only think'
p958
aS'A Damaged'
p959
aS'A damaged'
p960
aS'A DAMAGED'
p961
aS'An incompetent'
p962
aS'An Incompetent'
p963
aS'She will not'
p964
aS'She will NOT'
p965
aS'Happens Every Time'
p966
aS'Happens every time'
p967
aS'We believe'
p968
aS'We belieVe'
p969
aS'We Believe'
p970
aS'We BELIEVE'
p971
aS'We do not Believe'
p972
aS'We do not belieVe'
p973
aS'We Do not Believe'
p974
aS'We Do Not Believe'
p975
aS'We do not believe'
p976
aS'We DO NOT BELIEVE'
p977
aS'you ALWAYS'
p978
aS'you always'
p979
aS'you alWays'
p980
aS'you Always'
p981
aS'you will Think'
p982
aS'you will think'
p983
aS'You will not think'
p984
aS'ok but'
p985
aS'ok But'
p986
aS'The worsT'
p987
aS'The Worst'
p988
aS'The worst'
p989
aS'The WORST'
p990
aS'The WOrSt'
p991
aS'either or'
p992
aS'either Or'
p993
aS'either OR'
p994
aS'fine But'
p995
aS'fine but'
p996
aS'Good yet'
p997
aS'Good Yet'
p998
aS'not all that'
p999
aS'not all That'
p1000
aS'not all THAT'
p1001
aS'Great yet'
p1002
aS'Great Yet'
p1003
aS'neiTher'
p1004
aS'neIther'
p1005
aS'nEITHER'
p1006
aS'neitHer'
p1007
aS'neither'
p1008
aS'Black or white'
p1009
aS'Black Or White'
p1010
aS'Black or White'
p1011
aS'you will not believe'
p1012
aS'i Will not'
p1013
aS'i WILL NOT'
p1014
aS'i Will Not'
p1015
aS'i will not'
p1016
aS'They will not think'
p1017
aS'completelY'
p1018
aS'compleTELY'
p1019
aS'cOmpletely'
p1020
aS'comPLETELY'
p1021
aS'compleTely'
p1022
aS'coMPLETELY'
p1023
aS'completely'
p1024
aS'comPletely'
p1025
aS'completeLy'
p1026
aS'He alWays'
p1027
aS'He always'
p1028
aS'He ALWAYS'
p1029
aS'He Always'
p1030
aS'We THINK'
p1031
aS'We thinK'
p1032
aS'We Think'
p1033
aS'We think'
p1034
aS'you do not Know'
p1035
aS'you do not knoW'
p1036
aS'you do NOT know'
p1037
aS'you do not know'
p1038
aS'you do not KNOW'
p1039
aS'an absolute'
p1040
aS'an ABSOLUTE'
p1041
aS'an ABsolute'
p1042
aS'an abSOlute'
p1043
aS'an abSolute'
p1044
aS'an Absolute'
p1045
aS'a Broken'
p1046
aS'a broKen'
p1047
aS'a BROKEN'
p1048
aS'a broken'
p1049
aS'a Hopeless'
p1050
aS'a hopeless'
p1051
aS'nothing Right'
p1052
aS'nothing right'
p1053
aS'all i can see'
p1054
aS'i see only'
p1055
aS'all I See'
p1056
aS'all I see'
p1057
aS'can only think'
p1058
aS'Completely bad'
p1059
aS'A hopeless'
p1060
aS'A HOPELESS'
p1061
aS'A HoPELEss'
p1062
aS'A Hopeless'
p1063
aS'A Broken'
p1064
aS'A BROKEN'
p1065
aS'A broken'
p1066
aS'An ABSOLUTE'
p1067
aS'An absolute'
p1068
aS'An Absolute'
p1069
aS'You Do not Think'
p1070
aS'You do not think'
p1071
aS'she alWays'
p1072
aS'she ALWAYS'
p1073
aS'she always'
p1074
aS'she Always'
p1075
aS'we do not believe'
p1076
aS'we do NOT believe'
p1077
aS'we do not Believe'
p1078
aS'we do not belieVe'
p1079
aS'we believe'
p1080
aS'we BELIEve'
p1081
aS'we belieVe'
p1082
aS'we Believe'
p1083
aS'we BELIEVE'
p1084
aS'No one Ever'
p1085
aS'No one ever'
p1086
aS'No one EVER'
p1087
aS'you will not Think'
p1088
aS'you will not think'
p1089
aS'You will think'
p1090
aS'black Or white'
p1091
aS'black Or White'
p1092
aS'black or White'
p1093
aS'black or white'
p1094
aS'NEither'
p1095
aS'Neither'
p1096
aS'NeiTher'
p1097
aS'NEITHER'
p1098
aS'NEiTHER'
p1099
aS'Acceptable but'
p1100
aS'Acceptable But'
p1101
aS'it was not'
p1102
aS'it was NOT'
p1103
aS'it waS not'
p1104
aS'it was Not'
p1105
aS'it was nOt'
p1106
aS'Not that great'
p1107
aS'Not that Great'
p1108
aS'good Yet'
p1109
aS'good yet'
p1110
aS'Worthless'
p1111
aS'WoRTHLEss'
p1112
aS'WorthleSS'
p1113
aS'WORTHLEss'
p1114
aS'WOrthless'
p1115
aS'WoRTHLESS'
p1116
aS'WOrthleSS'
p1117
aS'WORTHLESS'
p1118
aS'but i feel'
p1119
aS'You will believe'
p1120
aS'We will NOT'
p1121
aS'We wILL NOT'
p1122
aS'We wiLL NOT'
p1123
aS'We will NoT'
p1124
aS'We Will NOT'
p1125
aS'We WILL not'
p1126
aS'We will Not'
p1127
aS'We Will not'
p1128
aS'We Will Not'
p1129
aS'We WILL NOT'
p1130
aS'We will not'
p1131
aS'YOU Believe'
p1132
aS'You BELIEVE'
p1133
aS'YoU believe'
p1134
aS'YoU BELIEVE'
p1135
aS'You Believe'
p1136
aS'YOU BELIEVE'
p1137
aS'You believe'
p1138
aS'YOU believe'
p1139
aS'You BELIEve'
p1140
aS'Every single one of them'
p1141
aS'They will not know'
p1142
aS'we do not think'
p1143
aS'YOU always'
p1144
aS'You always'
p1145
aS'YOU ALWAYS'
p1146
aS'YOU Always'
p1147
aS'You ALways'
p1148
aS'You Always'
p1149
aS'You ALWAYS'
p1150
aS'an Utter'
p1151
aS'an utter'
p1152
aS'a TOXIC'
p1153
aS'a toxic'
p1154
aS'a Toxic'
p1155
aS'a Loser'
p1156
aS'a loser'
p1157
aS'a LOSER'
p1158
aS'not Matter'
p1159
aS'not MATTER'
p1160
aS'not matter'
p1161
aS'only the Bad'
p1162
aS'only the bad'
p1163
aS'all i see'
p1164
aS'all i See'
p1165
aS'All I see'
p1166
aS'All I See'
p1167
aS'completely wrong'
p1168
aS'completely Wrong'
p1169
aS'Not Count'
p1170
aS'Not count'
p1171
aS'A LOSER'
p1172
aS'A Loser'
p1173
aS'A loser'
p1174
aS'A Toxic'
p1175
aS'A TOXIC'
p1176
aS'A toxic'
p1177
aS'An utter'
p1178
aS'An Utter'
p1179
aS'We do not know'
p1180
aS'We Do not know'
p1181
aS'We do not KNOW'
p1182
aS'We DO NOT KNOW'
p1183
aS'We do NOT know'
p1184
aS'We Do Not Know'
p1185
aS'We Do not Know'
p1186
aS'We do not knoW'
p1187
aS'We do not Know'
p1188
aS'I alWays'
p1189
aS'I ALWAYS'
p1190
aS'I always'
p1191
aS'I ALways'
p1192
aS'I alwayS'
p1193
aS'I Always'
p1194
aS'nobody ever'
p1195
aS'nobody EVER'
p1196
aS'nobody Ever'
p1197
aS'they will not believe'
p1198
aS'We will not think'
p1199
aS'You will NOT'
p1200
aS'You will not'
p1201
aS'You will Not'
p1202
aS'You will KNOW'
p1203
aS'You will Know'
p1204
aS'You will know'
p1205
aS'But I feel'
p1206
aS'But I Feel'
p1207
aS'worthleSS'
p1208
aS'worthLESS'
p1209
aS'worthless'
p1210
aS'worthleSs'
p1211
aS'worthLEss'
p1212
aS'worTHLEss'
p1213
aS'worTHLESS'
p1214
aS'ok yet'
p1215
aS'Not that good'
p1216
aS'fine Yet'
p1217
aS'fine yet'
p1218
aS'It was not'
p1219
aS'It WaS not'
p1220
aS'It was Not'
p1221
aS'It Was Not'
p1222
aS'It was nOt'
p1223
aS'It WAS not'
p1224
aS'It Was not'
p1225
aS'It was NOT'
p1226
aS'It WAS NOT'
p1227
aS'Since it feels'
p1228
aS'EVer'
p1229
aS'EvER'
p1230
aS'EvEr'
p1231
aS'EVEr'
p1232
aS'Ever'
p1233
aS'EVER'
p1234
aS'EveR'
p1235
aS'nEvEr'
p1236
aS'nEVER'
p1237
aS'never'
p1238
aS'nEvER'
p1239
aS'nEveR'
p1240
aS'nevEr'
p1241
aS'neVer'
p1242
aS'nEVEr'
p1243
aS'neVeR'
p1244
aS'nEver'
p1245
aS'neveR'
p1246
aS'we will NOT'
p1247
aS'we will Not'
p1248
aS'we will NoT'
p1249
aS'we will not'
p1250
aS'you will believe'
p1251
aS'Always Like'
p1252
aS'Always like'
p1253
aS'Every single one of you'
p1254
aS'We Do Not Think'
p1255
aS'We Do not Think'
p1256
aS'We do not think'
p1257
aS'they will not know'
p1258
aS'no one Ever'
p1259
aS'no one ever'
p1260
aS'no one EVER'
p1261
aS'no one eVer'
p1262
aS'An ugly'
p1263
aS'An Ugly'
p1264
aS'A bad'
p1265
aS'A BAD'
p1266
aS'A Bad'
p1267
aS'will faiL'
p1268
aS'will fail'
p1269
aS'will FAIL'
p1270
aS'will Fail'
p1271
aS'All I can see'
p1272
aS'All I Can See'
p1273
aS'Only the Bad'
p1274
aS'Only the bad'
p1275
aS'Only the worst'
p1276
aS'all I can See'
p1277
aS'all I can see'
p1278
aS'Will fail'
p1279
aS'Will Fail'
p1280
aS'a Bad'
p1281
aS'a bad'
p1282
aS'a baD'
p1283
aS'a BaD'
p1284
aS'a BAD'
p1285
aS'an UGLY'
p1286
aS'an ugly'
p1287
aS'an Ugly'
p1288
aS'they will not think'
p1289
aS'Nobody Ever'
p1290
aS'Nobody ever'
p1291
aS'i ALWAYS'
p1292
aS'i Always'
p1293
aS'i always'
p1294
aS'We will believe'
p1295
aS'happens every time'
p1296
aS'you do not think'
p1297
aS'you do not THINK'
p1298
aS'I will Not'
p1299
aS'I will NoT'
p1300
aS'I will NOT'
p1301
aS'I will not'
p1302
aS'NEveR'
p1303
aS'NeveR'
p1304
aS'NeVer'
p1305
aS'NeVeR'
p1306
aS'Never'
p1307
aS'NEVer'
p1308
aS'NEvEr'
p1309
aS'NEver'
p1310
aS'NEVEr'
p1311
aS'NEvER'
p1312
aS'NEVER'
p1313
aS'NeVER'
p1314
aS'eveR'
p1315
aS'evEr'
p1316
aS'ever'
p1317
aS'Because it feels'
p1318
aS'not that Good'
p1319
aS'not that good'
p1320
aS'OK yet'
p1321
aS'no One'
p1322
aS'no onE'
p1323
aS'no one'
p1324
aS'no ONE'
p1325
aS'The BeSt'
p1326
aS'The BeST'
p1327
aS'ThE BEST'
p1328
aS'The beSt'
p1329
aS'The BesT'
p1330
aS'The BEST'
p1331
aS'The best'
p1332
aS'The Best'
p1333
aS'ThE bEST'
p1334
aS'The BEst'
p1335
aS'The besT'
p1336
aS'ShOUld'
p1337
aS'ShOULD'
p1338
aS'ShouLD'
p1339
aS'SHould'
p1340
aS'ShoulD'
p1341
aS'ShoUld'
p1342
aS'SHOULD'
p1343
aS'Should'
p1344
aS'SHOUlD'
p1345
aS'SHOUld'
p1346
aS'SHOULd'
p1347
aS'ShouLd'
p1348
aS'SHOulD'
p1349
aS'ShOuld'
p1350
aS'ShOuLd'
p1351
aS'ShOuLD'
p1352
aS'SHouLD'
p1353
aS'SHOuld'
p1354
aS'SHOuLD'
p1355
aS'ShoULD'
p1356
aS'SHoULD'
p1357
aS'BeCause I'
p1358
aS'Because I'
p1359
aS'Because i'
p1360
aS'They do not know'
p1361
aS'They do not Know'
p1362
aS'they know'
p1363
aS'they Know'
p1364
aS'they KNOW'
p1365
aS'they knoW'
p1366
aS'they KNow'
p1367
aS'they knOW'
p1368
aS'I am Always'
p1369
aS'I am alWays'
p1370
aS'I am always'
p1371
aS'I am ALWAYS'
p1372
aS'she will not know'
p1373
aS'He Will know'
p1374
aS'He will know'
p1375
aS'he will not know'
p1376
aS'that is AN'
p1377
aS'that is an'
p1378
aS'that is An'
p1379
aS'that iS a'
p1380
aS'that is A'
p1381
aS'that is a'
p1382
aS'if i only'
p1383
aS'Everyone Believes'
p1384
aS'Everyone believes'
p1385
aS'He thinks'
p1386
aS'He THINKS'
p1387
aS'He Thinks'
p1388
aS'he does not believe'
p1389
aS'EveryOne knows'
p1390
aS'EveRYoNE knows'
p1391
aS'EveRYONE knows'
p1392
aS'Everyone knows'
p1393
aS'Everyone KNOWS'
p1394
aS'Everyone Knows'
p1395
aS'if it just'
p1396
aS'if it Just'
p1397
aS'That is A'
p1398
aS'That is a'
p1399
aS'That is an'
p1400
aS'That is An'
p1401
aS'he will not believe'
p1402
aS'he will believe'
p1403
aS'She will not think'
p1404
aS'They THINK'
p1405
aS'They think'
p1406
aS'They Think'
p1407
aS'you are ALWAYS'
p1408
aS'you Are always'
p1409
aS'you are always'
p1410
aS'you are Always'
p1411
aS'because I'
p1412
aS'because i'
p1413
aS'becauSe I'
p1414
aS'they do not Think'
p1415
aS'they do not think'
p1416
aS'should'
p1417
aS'shoULD'
p1418
aS'shouLD'
p1419
aS'sHoULD'
p1420
aS'sHoulD'
p1421
aS'shOuld'
p1422
aS'shouLd'
p1423
aS'sHOuLD'
p1424
aS'sHOULD'
p1425
aS'shoUld'
p1426
aS'sHouLD'
p1427
aS'shOUld'
p1428
aS'shoulD'
p1429
aS'sHould'
p1430
aS'the besT'
p1431
aS'the best'
p1432
aS'the beSt'
p1433
aS'No one'
p1434
aS'No ONE'
p1435
aS'No oNE'
p1436
aS'No oNe'
p1437
aS'No onE'
p1438
aS'No One'
p1439
aS'peRfect'
p1440
aS'perFECT'
p1441
aS'perFeCt'
p1442
aS'perfecT'
p1443
aS'perfeCt'
p1444
aS'perFect'
p1445
aS'perfect'
p1446
aS'pERFECT'
p1447
aS'not a Single'
p1448
aS'not a SINGLE'
p1449
aS'not a single'
p1450
aS'EVERYTHiNG'
p1451
aS'EVERYthing'
p1452
aS'EVerything'
p1453
aS'EvErything'
p1454
aS'EVERYThing'
p1455
aS'EVERYTHING'
p1456
aS'EvERYTHING'
p1457
aS'Everything'
p1458
aS'EveryThing'
p1459
aS'EveRything'
p1460
aS'EVErything'
p1461
aS'EveRYTHING'
p1462
aS'EVERyTHING'
p1463
aS'ougHt'
p1464
aS'oUght'
p1465
aS'ought'
p1466
aS'ouGHT'
p1467
aS'oughT'
p1468
aS'oUGHT'
p1469
aS'i am always'
p1470
aS'They do not believe'
p1471
aS'they will believe'
p1472
aS'I caused'
p1473
aS'I Caused'
p1474
aS'I CAUSED'
p1475
aS'He will think'
p1476
aS'He does not think'
p1477
aS'sucks at'
p1478
aS'Everyone thinks'
p1479
aS'Everyone Thinks'
p1480
aS'if it only'
p1481
aS'if it Only'
p1482
aS'it is a'
p1483
aS'it is A'
p1484
aS'it iS a'
p1485
aS'It IS a'
p1486
aS'It iS a'
p1487
aS'It IS A'
p1488
aS'It is A'
p1489
aS'It Is a'
p1490
aS'It is a'
p1491
aS'It Is A'
p1492
aS'If it just'
p1493
aS'everyone Knows'
p1494
aS'everyone knows'
p1495
aS'everyone KNOWS'
p1496
aS'everyOne knows'
p1497
aS'Sucks at'
p1498
aS'He will believe'
p1499
aS'He will not believe'
p1500
aS'i Caused'
p1501
aS'i caused'
p1502
aS'They do not think'
p1503
aS'All MY'
p1504
aS'All My'
p1505
aS'All my'
p1506
aS'they Always'
p1507
aS'they alWays'
p1508
aS'they ALWAYS'
p1509
aS'they always'
p1510
aS'they thinK'
p1511
aS'they Think'
p1512
aS'they think'
p1513
aS'they THINK'
p1514
aS'OUght'
p1515
aS'Ought'
p1516
aS'OUGHT'
p1517
aS'eveRything'
p1518
aS'everythIng'
p1519
aS'everyTHING'
p1520
aS'everYthing'
p1521
aS'everyThing'
p1522
aS'everythinG'
p1523
aS'everything'
p1524
aS'everytHing'
p1525
aS'Not A SINGLE'
p1526
aS'Not A Single'
p1527
aS'Not a single'
p1528
aS'Not a Single'
p1529
aS'PerfeCt'
p1530
aS'PerFeCt'
p1531
aS'PerfecT'
p1532
aS'PerFeCT'
p1533
aS'PerFect'
p1534
aS'Perfect'
p1535
aS'PerfeCT'
p1536
aS'PeRFeCt'
p1537
aS'PerFecT'
p1538
aS'PeRFeCT'
p1539
aS'will not end'
p1540
aS'will not End'
p1541
aS'EVERYwHERE'
p1542
aS'EveRYwHERE'
p1543
aS'EVERYWhere'
p1544
aS'EVERYWHERE'
p1545
aS'EVERYwhere'
p1546
aS'Everywhere'
p1547
aS'EVERyWHERE'
p1548
aS'EVerywhere'
p1549
aS'EveRYwhERE'
p1550
aS'EvERYWHERE'
p1551
aS'EVERYwhERE'
p1552
aS'EveRywhere'
p1553
aS'EveryWhere'
p1554
aS'EveRYWHERE'
p1555
aS'EveRYwhere'
p1556
aS'nObody'
p1557
aS'noBody'
p1558
aS'noboDy'
p1559
aS'nobody'
p1560
aS'nobOdy'
p1561
aS'nObOdy'
p1562
aS'havE to'
p1563
aS'have tO'
p1564
aS'have to'
p1565
aS'have To'
p1566
aS'have TO'
p1567
aS'My Responsibility'
p1568
aS'My responsibility'
p1569
aS'they believe'
p1570
aS'they BELIEVE'
p1571
aS'they Believe'
p1572
aS'they belieVe'
p1573
aS'You are ALWAYS'
p1574
aS'You are Always'
p1575
aS'You are always'
p1576
aS'You Are Always'
p1577
aS'They are ALWAYS'
p1578
aS'They Are Always'
p1579
aS'They are always'
p1580
aS'They are Always'
p1581
aS'they will KNOW'
p1582
aS'they will Know'
p1583
aS'they will know'
p1584
aS'i never'
p1585
aS'i NEVER'
p1586
aS'i Never'
p1587
aS'he will not think'
p1588
aS'he does not know'
p1589
aS'he does not KNOW'
p1590
aS'he does not Know'
p1591
aS'he does not knoW'
p1592
aS'everyone will believe'
p1593
aS'if I Only'
p1594
aS'if I only'
p1595
aS'If I only'
p1596
aS'If I Only'
p1597
aS'everyone will know'
p1598
aS'He does not believe'
p1599
aS'He will not know'
p1600
aS'I NEVER'
p1601
aS'I NEver'
p1602
aS'I never'
p1603
aS'I NEveR'
p1604
aS'I Never'
p1605
aS'I NEvER'
p1606
aS'I neVer'
p1607
aS'all Me'
p1608
aS'all ME'
p1609
aS'all me'
p1610
aS'They will think'
p1611
aS'They Know'
p1612
aS'They knoW'
p1613
aS'They KNOW'
p1614
aS'They know'
p1615
aS'He Is always'
p1616
aS'He is Always'
p1617
aS'He is alWays'
p1618
aS'He is ALWAYS'
p1619
aS'He Is Always'
p1620
aS'He is always'
p1621
aS'my Responsibility'
p1622
aS'my responsibility'
p1623
aS'my responSibility'
p1624
aS'my reSponsibility'
p1625
aS'Have to'
p1626
aS'Have TO'
p1627
aS'Have To'
p1628
aS'NobOdy'
p1629
aS'NObOdy'
p1630
aS'NoBoDY'
p1631
aS'Nobody'
p1632
aS'NoBody'
p1633
aS'NoboDY'
p1634
aS'NOBODy'
p1635
aS'NOBODY'
p1636
aS'NoBODY'
p1637
aS'NObody'
p1638
aS'everywhere'
p1639
aS'everyWhere'
p1640
aS'everYwhere'
p1641
aS'everYWhere'
p1642
aS'Will Not End'
p1643
aS'Will not end'
p1644
aS'Will not End'
p1645
aS'notHing'
p1646
aS'nothing'
p1647
aS'nothinG'
p1648
aS'noThing'
p1649
aS'nothIng'
p1650
aS'nOthing'
p1651
aS'AlWayS'
p1652
aS'AlWAyS'
p1653
aS'AlwayS'
p1654
aS'ALwAYs'
p1655
aS'ALwAYS'
p1656
aS'ALwAyS'
p1657
aS'ALWAYs'
p1658
aS'ALwAys'
p1659
aS'ALWAyS'
p1660
aS'AlwAyS'
p1661
aS'ALWAYS'
p1662
aS'ALways'
p1663
aS'AlwAys'
p1664
aS'Always'
p1665
aS'AlWAys'
p1666
aS'ALWAys'
p1667
aS'AlWays'
p1668
aS'AlWAYS'
p1669
aS'MUsT'
p1670
aS'MUSt'
p1671
aS'MUst'
p1672
aS'MuSt'
p1673
aS'MuST'
p1674
aS'Must'
p1675
aS'MUST'
p1676
aS'MusT'
p1677
aS'She will believe'
p1678
aS'They will know'
p1679
aS'all my'
p1680
aS'all My'
p1681
aS'all MY'
p1682
aS'She is always'
p1683
aS'They belieVe'
p1684
aS'They Believe'
p1685
aS'They believe'
p1686
aS'Suck at'
p1687
aS'i am an'
p1688
aS'He does not Know'
p1689
aS'He does not know'
p1690
aS'He will not think'
p1691
aS'nobody will know'
p1692
aS'If I Just'
p1693
aS'If I just'
p1694
aS'Everyone will believe'
p1695
aS'everyone thinks'
p1696
aS'if I just'
p1697
aS'if I Just'
p1698
aS'Nobody will believe'
p1699
aS'she Believes'
p1700
aS'she believes'
p1701
aS'he does not think'
p1702
aS'I am AN'
p1703
aS'I am an'
p1704
aS'I am An'
p1705
aS'suck at'
p1706
aS'suck At'
p1707
aS'he is always'
p1708
aS'he is alWays'
p1709
aS'he is ALWAYS'
p1710
aS'he Is always'
p1711
aS'she will not think'
p1712
aS'They will believe'
p1713
aS'All Me'
p1714
aS'All ME'
p1715
aS'All me'
p1716
aS'she does not think'
p1717
aS'mUst'
p1718
aS'muSt'
p1719
aS'mUST'
p1720
aS'muST'
p1721
aS'musT'
p1722
aS'mUsT'
p1723
aS'must'
p1724
aS'mUSt'
p1725
aS'aLWaYs'
p1726
aS'alwayS'
p1727
aS'alWays'
p1728
aS'alwaYS'
p1729
aS'always'
p1730
aS'aLWaYS'
p1731
aS'alWaYS'
p1732
aS'alWaYs'
p1733
aS'alwaYs'
p1734
aS'alWayS'
p1735
aS'aLWays'
p1736
aS'aLways'
p1737
aS'NoThing'
p1738
aS'NoTHING'
p1739
aS'NothiNg'
p1740
aS'NOthing'
p1741
aS'NOTHING'
p1742
aS'NothIng'
p1743
aS'NOThing'
p1744
aS'NOTHing'
p1745
aS'NOThING'
p1746
aS'Nothing'
p1747
aS'NOTHINg'
p1748
aS'NOTHiNG'
p1749
aS'Dichotomous Reasoning'
p1750
ag1750
ag1750
ag1750
ag1750
aS'Catastrophizing'
p1751
ag1751
aS'Should statements'
p1752
ag1752
ag1752
ag1752
aS'Personalizing'
p1753
ag1753
ag1753
aS'Mindreading'
p1754
ag1754
ag1754
ag1753
ag1753
ag1754
aS'Labeling and mislabeling'
p1755
ag1755
ag1755
ag1755
ag1755
ag1755
ag1755
ag1755
ag1755
ag1755
ag1755
ag1755
ag1755
ag1754
ag1754
ag1754
ag1754
ag1755
ag1755
ag1755
ag1755
ag1755
ag1755
ag1755
ag1755
ag1755
ag1755
ag1755
ag1755
ag1754
ag1754
ag1754
ag1754
ag1754
ag1755
ag1755
ag1755
ag1755
ag1755
ag1755
ag1755
ag1755
ag1755
ag1755
ag1755
ag1755
ag1755
ag1755
ag1754
ag1754
ag1753
ag1753
ag1753
ag1753
ag1753
ag1753
ag1754
ag1752
ag1752
ag1752
ag1752
ag1752
ag1752
ag1751
ag1750
ag1750
ag1750
ag1750
ag1750
ag1750
ag1750
ag1750
ag1750
ag1750
ag1750
ag1750
ag1750
ag1751
ag1750
ag1750
ag1750
ag1750
ag1750
ag1750
ag1750
ag1750
ag1750
ag1750
ag1750
ag1750
ag1753
ag1753
ag1754
ag1754
ag1754
ag1753
ag1753
aS'Overgeneralizing'
p1756
ag1756
ag1755
ag1755
ag1755
ag1755
ag1755
ag1754
ag1754
ag1754
ag1754
ag1754
ag1754
ag1755
ag1755
ag1755
ag1755
ag1755
ag1755
ag1754
ag1754
ag1754
ag1754
ag1754
ag1754
ag1754
ag1755
ag1755
ag1755
ag1755
ag1755
ag1755
ag1755
ag1756
ag1756
ag1756
ag1756
ag1756
ag1754
ag1753
ag1753
ag1753
ag1753
ag1753
ag1754
ag1750
ag1750
ag1750
ag1750
ag1750
ag1750
ag1750
ag1750
ag1750
ag1750
ag1750
ag1750
ag1750
ag1750
ag1750
ag1750
ag1751
ag1750
ag1750
ag1750
ag1750
ag1751
ag1750
ag1750
ag1750
ag1750
ag1750
ag1753
ag1753
ag1753
ag1754
ag1753
ag1754
ag1754
ag1755
ag1755
ag1755
ag1755
ag1755
ag1755
ag1755
ag1755
ag1755
ag1755
ag1755
ag1755
ag1755
ag1754
ag1754
ag1754
ag1754
ag1754
ag1754
ag1754
ag1754
ag1755
ag1755
ag1755
ag1755
ag1755
ag1755
ag1754
ag1754
ag1754
ag1754
ag1754
ag1754
ag1754
ag1754
ag1754
ag1754
ag1755
ag1755
ag1755
ag1755
ag1755
ag1755
ag1755
ag1755
ag1755
ag1755
ag1755
ag1755
ag1755
ag1755
ag1754
ag1753
ag1754
ag1754
ag1754
ag1753
ag1753
ag1753
ag1753
ag1753
ag1753
ag1750
ag1750
ag1750
ag1750
ag1750
ag1750
ag1750
ag1750
ag1750
ag1750
ag1750
ag1750
ag1750
ag1750
ag1750
ag1750
ag1750
ag1750
ag1750
ag1750
ag1750
ag1750
ag1750
ag1750
ag1750
ag1750
ag1750
ag1750
ag1750
ag1750
ag1750
ag1750
ag1750
ag1750
ag1750
ag1750
ag1750
ag1750
ag1750
ag1750
ag1750
ag1754
ag1754
ag1753
ag1753
ag1753
ag1754
ag1754
ag1754
ag1754
ag1755
ag1755
ag1755
ag1755
ag1755
ag1755
ag1755
ag1755
aS'Mental Filtering'
p1757
ag1757
ag1757
ag1754
ag1754
ag1754
ag1754
ag1755
ag1755
ag1755
ag1755
ag1755
ag1755
ag1755
ag1755
ag1754
ag1754
ag1754
ag1754
ag1754
ag1754
ag1754
ag1754
ag1754
ag1754
ag1754
ag1755
ag1755
ag1755
ag1755
ag1755
ag1755
ag1755
ag1753
ag1753
ag1753
ag1754
ag1754
ag1754
ag1754
ag1753
ag1754
ag1754
ag1754
ag1754
ag1754
ag1751
ag1750
ag1750
ag1750
aS'Emotional Reasoning'
p1758
ag1758
ag1758
ag1758
ag1758
ag1758
aS'Fortune-telling'
p1759
ag1759
ag1759
ag1754
ag1754
ag1754
ag1754
ag1754
ag1754
ag1754
ag1754
ag1754
ag1754
ag1754
ag1756
ag1756
ag1756
ag1759
ag1759
ag1759
ag1759
ag1754
ag1756
ag1756
ag1755
ag1755
ag1755
ag1755
ag1755
ag1755
ag1755
ag1755
ag1755
ag1755
ag1755
aS'Magnification and Minimization'
p1760
ag1760
ag1760
ag1760
ag1760
ag1760
ag1760
ag1751
ag1755
ag1755
ag1755
ag1755
ag1755
ag1755
ag1755
ag1751
ag1760
ag1760
ag1760
ag1760
ag1760
ag1760
ag1760
ag1755
ag1755
ag1755
ag1755
ag1755
ag1755
ag1755
ag1755
ag1755
ag1755
ag1755
ag1755
ag1756
ag1759
ag1759
ag1759
ag1759
ag1759
ag1759
ag1754
ag1754
ag1754
ag1754
ag1754
ag1754
ag1754
ag1754
ag1754
ag1756
ag1759
ag1759
ag1759
ag1758
ag1758
ag1758
ag1758
ag1758
aS'Disqualifying the Positive'
p1761
ag1761
ag1761
ag1754
ag1759
ag1759
ag1756
ag1756
ag1754
ag1754
ag1754
ag1754
ag1754
ag1754
ag1754
ag1754
ag1754
ag1754
ag1754
ag1754
ag1754
ag1754
ag1754
ag1754
ag1754
ag1754
ag1754
ag1754
ag1754
ag1754
ag1754
ag1754
ag1754
ag1754
ag1754
ag1754
ag1754
ag1754
ag1755
ag1755
ag1755
ag1755
ag1755
ag1755
ag1755
ag1755
ag1755
ag1755
ag1755
ag1755
ag1755
ag1755
ag1755
ag1760
ag1760
ag1760
ag1760
ag1760
ag1760
ag1760
ag1760
ag1755
ag1755
ag1755
ag1751
ag1751
ag1751
ag1757
ag1757
ag1757
ag1751
ag1751
ag1755
ag1755
ag1755
ag1760
ag1760
ag1760
ag1760
ag1760
ag1760
ag1760
ag1760
ag1760
ag1760
ag1755
ag1755
ag1755
ag1755
ag1755
ag1755
ag1755
ag1755
ag1755
ag1755
ag1755
ag1755
ag1755
ag1755
ag1754
ag1756
ag1756
ag1754
ag1754
ag1754
ag1754
ag1754
ag1759
ag1759
ag1759
ag1759
ag1758
ag1758
ag1761
ag1761
ag1761
ag1758
ag1758
ag1761
ag1761
ag1761
ag1754
ag1754
ag1754
ag1754
ag1754
ag1754
ag1754
ag1754
ag1754
ag1754
ag1759
ag1759
ag1759
ag1754
ag1754
ag1754
ag1754
ag1754
ag1754
ag1754
ag1754
ag1754
ag1754
ag1756
ag1756
ag1756
ag1756
ag1755
ag1755
ag1755
ag1755
ag1755
ag1755
ag1755
ag1755
ag1755
ag1757
ag1757
ag1755
ag1755
ag1751
ag1760
ag1760
ag1760
ag1760
ag1760
ag1760
ag1760
ag1760
ag1760
ag1760
ag1760
ag1760
ag1751
ag1751
ag1751
ag1755
ag1755
ag1755
ag1757
ag1757
ag1755
ag1755
ag1755
ag1755
ag1755
ag1755
ag1755
ag1755
ag1754
ag1754
ag1754
ag1756
ag1756
ag1756
ag1756
ag1756
ag1759
ag1759
ag1759
ag1754
ag1754
ag1754
ag1754
ag1754
ag1754
ag1761
ag1761
ag1761
ag1761
ag1761
ag1750
ag1750
ag1750
ag1750
ag1761
ag1761
ag1761
ag1761
ag1758
ag1754
ag1754
ag1754
ag1756
ag1756
ag1756
ag1756
ag1756
ag1756
ag1756
ag1756
ag1754
ag1754
ag1754
ag1754
ag1754
ag1754
ag1754
ag1754
ag1754
ag1754
ag1754
ag1754
ag1759
ag1759
ag1759
ag1759
ag1759
ag1759
ag1755
ag1755
ag1755
ag1755
ag1755
ag1755
ag1755
ag1755
ag1755
ag1755
ag1755
ag1755
ag1755
ag1755
ag1755
ag1755
ag1755
ag1751
ag1751
ag1755
ag1760
ag1760
ag1760
ag1760
ag1760
ag1760
ag1760
ag1760
ag1757
ag1757
ag1760
ag1760
ag1760
ag1760
ag1760
ag1760
ag1760
ag1760
ag1760
ag1760
ag1760
ag1760
ag1760
ag1755
ag1755
ag1751
ag1751
ag1751
ag1751
ag1755
ag1755
ag1755
ag1755
ag1755
ag1755
ag1755
ag1755
ag1755
ag1755
ag1755
ag1755
ag1755
ag1754
ag1759
ag1759
ag1759
ag1756
ag1756
ag1754
ag1754
ag1754
ag1756
ag1756
ag1756
ag1756
ag1754
ag1761
ag1761
ag1750
ag1750
ag1750
ag1750
ag1761
ag1761
ag1761
ag1761
ag1761
ag1750
ag1750
ag1750
ag1750
ag1750
ag1750
ag1750
ag1750
ag1750
ag1750
ag1750
ag1761
ag1761
ag1761
ag1754
ag1754
ag1754
ag1754
ag1754
ag1754
ag1754
ag1754
ag1754
ag1754
ag1756
ag1756
ag1756
ag1756
ag1756
ag1756
ag1756
ag1756
ag1756
ag1756
ag1756
ag1756
ag1756
ag1756
ag1754
ag1754
ag1754
ag1754
ag1754
ag1754
ag1754
ag1754
ag1756
ag1756
ag1755
ag1755
ag1755
ag1755
ag1755
ag1755
ag1757
ag1757
ag1757
ag1757
ag1751
ag1757
ag1757
ag1755
ag1755
ag1755
ag1755
ag1755
ag1759
ag1759
ag1756
ag1756
ag1754
ag1754
ag1754
ag1754
ag1754
ag1754
ag1754
ag1754
ag1754
ag1754
ag1756
ag1756
ag1756
ag1756
ag1754
ag1754
ag1754
ag1761
ag1761
ag1750
ag1750
ag1750
ag1750
ag1750
ag1750
ag1750
ag1750
ag1761
ag1761
ag1761
ag1761
ag1761
ag1761
ag1761
ag1761
ag1761
ag1750
ag1750
ag1750
ag1750
ag1750
ag1750
ag1750
ag1750
ag1754
ag1759
ag1759
ag1759
ag1759
ag1754
ag1756
ag1756
ag1756
ag1756
ag1756
ag1756
ag1756
ag1756
ag1756
ag1756
ag1756
ag1756
ag1756
ag1754
ag1754
ag1754
ag1754
ag1754
ag1754
ag1754
ag1754
ag1754
ag1755
ag1755
ag1755
ag1755
ag1755
ag1755
ag1755
ag1755
ag1755
ag1755
ag1755
ag1755
ag1757
ag1757
ag1757
ag1757
ag1757
ag1757
ag1757
ag1757
ag1755
ag1755
ag1755
ag1755
ag1755
ag1755
ag1755
ag1755
ag1755
ag1755
ag1754
ag1754
ag1756
ag1756
ag1756
ag1756
ag1754
ag1754
ag1754
ag1754
ag1754
ag1754
ag1754
ag1754
ag1754
ag1756
ag1756
ag1756
ag1754
ag1754
ag1754
ag1750
ag1750
ag1750
ag1750
ag1750
ag1750
ag1750
ag1750
ag1750
ag1761
ag1761
ag1761
ag1761
ag1761
ag1761
ag1761
ag1761
ag1761
ag1761
ag1761
ag1750
ag1750
ag1750
ag1750
ag1750
ag1750
ag1750
ag1750
ag1758
ag1754
ag1759
ag1759
ag1759
ag1759
ag1759
ag1759
ag1759
ag1759
ag1759
ag1759
ag1759
ag1754
ag1754
ag1754
ag1754
ag1754
ag1754
ag1754
ag1754
ag1754
ag1756
ag1754
ag1754
ag1756
ag1756
ag1756
ag1756
ag1756
ag1756
ag1756
ag1755
ag1755
ag1755
ag1755
ag1755
ag1755
ag1755
ag1755
ag1760
ag1760
ag1760
ag1757
ag1757
ag1757
ag1757
ag1757
ag1757
ag1757
ag1757
ag1760
ag1760
ag1755
ag1755
ag1755
ag1755
ag1755
ag1755
ag1755
ag1755
ag1754
ag1754
ag1754
ag1754
ag1754
ag1754
ag1754
ag1754
ag1754
ag1756
ag1756
ag1756
ag1756
ag1756
ag1756
ag1756
ag1756
ag1756
ag1754
ag1754
ag1759
ag1759
ag1759
ag1754
ag1754
ag1754
ag1758
ag1758
ag1750
ag1750
ag1750
ag1750
ag1750
ag1750
ag1750
ag1761
ag1761
ag1761
ag1761
ag1761
ag1761
ag1761
ag1761
ag1761
ag1761
ag1761
ag1761
ag1761
ag1758
ag1750
ag1750
ag1750
ag1750
ag1750
ag1750
ag1750
ag1750
ag1750
ag1750
ag1750
ag1750
ag1750
ag1750
ag1750
ag1750
ag1750
ag1750
ag1759
ag1759
ag1759
ag1759
ag1754
ag1756
ag1756
ag1756
ag1754
ag1754
ag1754
ag1754
ag1756
ag1756
ag1756
ag1756
ag1755
ag1755
ag1755
ag1755
ag1755
ag1751
ag1751
ag1751
ag1751
ag1757
ag1757
ag1757
ag1757
ag1757
ag1757
ag1757
ag1751
ag1751
ag1755
ag1755
ag1755
ag1755
ag1755
ag1755
ag1755
ag1755
ag1754
ag1756
ag1756
ag1756
ag1756
ag1756
ag1754
ag1756
ag1754
ag1754
ag1759
ag1759
ag1759
ag1759
ag1750
ag1750
ag1750
ag1750
ag1750
ag1750
ag1750
ag1750
ag1750
ag1750
ag1750
ag1750
ag1750
ag1750
ag1750
ag1758
ag1761
ag1761
ag1761
ag1750
ag1750
ag1750
ag1750
ag1750
ag1750
ag1750
ag1750
ag1750
ag1750
ag1750
ag1750
ag1750
ag1750
ag1750
ag1752
ag1752
ag1752
ag1752
ag1752
ag1752
ag1752
ag1752
ag1752
ag1752
ag1752
ag1752
ag1752
ag1752
ag1752
ag1752
ag1752
ag1752
ag1752
ag1752
ag1752
ag1753
ag1753
ag1753
ag1754
ag1754
ag1754
ag1754
ag1754
ag1754
ag1754
ag1754
ag1756
ag1756
ag1756
ag1756
ag1754
ag1754
ag1754
ag1754
ag1755
ag1755
ag1755
ag1755
ag1755
ag1755
ag1757
ag1754
ag1754
ag1754
ag1754
ag1754
ag1754
ag1754
ag1754
ag1754
ag1754
ag1754
ag1754
ag1757
ag1757
ag1755
ag1755
ag1755
ag1755
ag1754
ag1754
ag1754
ag1754
ag1754
ag1754
ag1756
ag1756
ag1756
ag1756
ag1753
ag1753
ag1753
ag1754
ag1754
ag1752
ag1752
ag1752
ag1752
ag1752
ag1752
ag1752
ag1752
ag1752
ag1752
ag1752
ag1752
ag1752
ag1752
ag1750
ag1750
ag1750
ag1750
ag1750
ag1750
ag1750
ag1750
ag1750
ag1750
ag1750
ag1750
ag1750
ag1750
ag1750
ag1750
ag1750
ag1750
ag1750
ag1750
ag1750
ag1750
ag1750
ag1750
ag1750
ag1750
ag1750
ag1750
ag1750
ag1750
ag1750
ag1750
ag1750
ag1752
ag1752
ag1752
ag1752
ag1752
ag1752
ag1756
ag1754
ag1754
ag1753
ag1753
ag1753
ag1754
ag1754
ag1755
ag1754
ag1754
ag1757
ag1757
ag1755
ag1755
ag1755
ag1755
ag1755
ag1755
ag1755
ag1755
ag1755
ag1755
ag1757
ag1754
ag1754
ag1754
ag1754
ag1755
ag1754
ag1754
ag1753
ag1753
ag1754
ag1753
ag1753
ag1753
ag1756
ag1756
ag1756
ag1756
ag1754
ag1754
ag1754
ag1754
ag1752
ag1752
ag1752
ag1750
ag1750
ag1750
ag1750
ag1750
ag1750
ag1750
ag1750
ag1750
ag1750
ag1750
ag1750
ag1750
ag1750
ag1750
ag1750
ag1750
ag1750
ag1750
ag1750
ag1750
ag1750
ag1751
ag1751
ag1750
ag1750
ag1750
ag1750
ag1750
ag1750
ag1750
ag1750
ag1750
ag1750
ag1750
ag1750
ag1750
ag1750
ag1750
ag1750
ag1750
ag1750
ag1750
ag1750
ag1750
ag1752
ag1752
ag1752
ag1752
ag1752
ag1753
ag1753
ag1754
ag1754
ag1754
ag1754
ag1756
ag1756
ag1756
ag1756
ag1756
ag1756
ag1756
ag1756
ag1754
ag1754
ag1754
ag1755
ag1755
ag1755
ag1754
ag1754
ag1754
ag1754
ag1754
ag1754
ag1757
ag1757
ag1757
ag1757
ag1754
ag1754
ag1754
ag1755
ag1755
ag1755
ag1755
ag1755
ag1755
ag1755
ag1753
ag1753
ag1753
ag1754
ag1754
ag1754
ag1754
ag1754
ag1756
ag1756
ag1756
ag1756
ag1756
ag1756
ag1753
ag1753
ag1753
ag1753
ag1752
ag1752
ag1752
ag1750
ag1750
ag1750
ag1750
ag1750
ag1750
ag1750
ag1750
ag1750
ag1750
ag1750
ag1750
ag1750
ag1750
ag1751
ag1751
ag1751
ag1750
ag1750
ag1750
ag1750
ag1750
ag1750
ag1750
ag1750
ag1750
ag1750
ag1750
ag1750
ag1750
ag1750
ag1750
ag1750
ag1750
ag1750
ag1750
ag1750
ag1750
ag1750
ag1750
ag1750
ag1752
ag1752
ag1752
ag1752
ag1752
ag1752
ag1752
ag1752
ag1754
ag1754
ag1753
ag1753
ag1753
ag1756
ag1754
ag1754
ag1754
ag1755
ag1755
ag1754
ag1754
ag1754
ag1754
ag1757
ag1757
ag1754
ag1754
ag1757
ag1757
ag1754
ag1754
ag1754
ag1754
ag1755
ag1755
ag1755
ag1755
ag1755
ag1756
ag1756
ag1756
ag1756
ag1754
ag1754
ag1753
ag1753
ag1753
ag1754
ag1752
ag1752
ag1752
ag1752
ag1752
ag1752
ag1752
ag1752
ag1750
ag1750
ag1750
ag1750
ag1750
ag1750
ag1750
ag1750
ag1750
ag1750
ag1750
ag1750
ag1750
ag1750
ag1750
ag1750
ag1750
ag1750
ag1750
ag1750
ag1750
ag1750
ag1750
ag1750
aS'every'
p1762
ag1762
ag1762
ag1762
ag1762
aS'will never end'
p1763
ag1763
aS'has to'
p1764
ag1764
ag1764
ag1764
aS'my bad'
p1765
ag1765
ag1765
aS'she will know'
p1766
aS'she does not know'
p1767
ag1767
aS'because of me'
p1768
ag1768
aS'they will not believe'
p1769
aS'he never'
p1770
ag1770
ag1770
ag1770
aS'he is an'
p1771
ag1771
ag1771
ag1771
ag1771
aS'we never'
p1772
ag1772
ag1772
ag1772
aS'nobody thinks'
p1773
ag1773
aS'nobody will think'
p1774
aS'everyone will think'
p1775
aS'he is a'
p1776
ag1776
ag1776
ag1776
ag1776
ag1776
ag1776
ag1776
ag1776
ag1776
ag1776
ag1776
aS'everyone will know'
p1777
aS'nobody will know'
p1778
aS'nobody knows'
p1779
ag1779
ag1779
ag1772
ag1772
ag1772
ag1772
ag1772
ag1771
ag1771
ag1771
ag1771
ag1771
ag1770
ag1770
ag1770
ag1770
aS'they will think'
p1780
aS'she does not believe'
p1781
ag1768
ag1768
ag1768
ag1768
ag1765
ag1765
aS'she will believe'
p1782
ag1764
ag1764
ag1764
ag1764
ag1764
ag1764
ag1763
ag1762
ag1762
ag1762
ag1762
ag1762
ag1762
ag1762
ag1762
ag1762
ag1762
ag1762
ag1762
ag1762
aS'will be a disaster'
p1783
aS'only'
p1784
ag1784
ag1784
ag1784
ag1784
ag1784
ag1784
ag1784
aS'nowhere'
p1785
ag1785
ag1785
ag1785
aS'because of my'
p1786
ag1786
ag1767
ag1767
ag1766
aS'all my fault'
p1787
ag1787
aS'she is always'
p1788
ag1788
aS'they never'
p1789
ag1789
ag1789
ag1789
aS'she is an'
p1790
aS'she knows'
p1791
ag1791
ag1791
ag1791
ag1774
ag1773
aS'I am a'
p1792
ag1792
ag1792
ag1792
ag1792
ag1792
aS'nobody will believe'
p1793
aS'he believes'
p1794
ag1794
ag1794
ag1794
aS'she believes'
p1795
ag1795
ag1790
ag1790
ag1790
ag1789
ag1789
ag1789
ag1789
aS'they are always'
p1796
ag1796
ag1796
ag1796
ag1796
aS'she will think'
p1797
ag1787
ag1786
ag1786
ag1786
ag1786
aS'she does not think'
p1798
ag1785
ag1785
ag1785
ag1785
ag1785
ag1785
ag1785
ag1785
ag1784
ag1784
ag1784
ag1784
ag1784
ag1784
ag1784
ag1784
ag1783
aS'all'
p1799
ag1799
ag1799
ag1799
aS'will be horrible'
p1800
aS'everyone'
p1801
ag1801
ag1801
ag1801
ag1801
aS'because my'
p1802
ag1802
ag1802
ag1781
aS'I am responsible'
p1803
aS'she will not know'
p1804
aS'he will know'
p1805
aS'you never'
p1806
ag1806
ag1806
ag1806
aS'it is an'
p1807
ag1807
ag1807
ag1807
ag1807
ag1807
ag1807
ag1807
ag1807
aS'he thinks'
p1808
ag1808
ag1808
ag1808
ag1779
ag1779
ag1779
ag1779
aS'she is a'
p1809
ag1809
ag1809
ag1809
ag1809
ag1809
aS'nobody believes'
p1810
ag1810
aS'he knows'
p1811
ag1811
ag1811
ag1811
ag1811
ag1811
ag1811
ag1811
ag1807
ag1807
ag1807
ag1807
ag1806
ag1806
ag1806
ag1806
ag1806
ag1806
ag1806
ag1806
ag1806
ag1806
aS'he will think'
p1812
aS'I feel responsible'
p1813
aS'she will not believe'
p1814
aS'she thinks'
p1815
ag1815
ag1803
ag1803
ag1803
ag1802
ag1802
ag1802
ag1801
ag1801
ag1801
ag1801
ag1801
ag1801
ag1801
ag1801
ag1801
ag1801
ag1801
ag1801
ag1801
ag1801
ag1801
ag1801
ag1801
ag1801
ag1799
ag1799
ag1799
ag1799
aS'everybody'
p1816
ag1816
ag1816
ag1816
ag1816
ag1816
ag1816
ag1816
ag1816
ag1816
ag1816
ag1816
ag1816
ag1816
ag1816
ag1816
ag1816
ag1816
ag1816
aS'they do not believe'
p1817
ag1797
aS'all my doing'
p1818
aS'blame me'
p1819
ag1819
ag1791
ag1791
ag1791
ag1791
aS'they are an'
p1820
ag1820
ag1820
ag1820
aS'she never'
p1821
ag1821
ag1821
ag1821
aS'if it only'
p1822
ag1822
ag1822
ag1775
ag1794
ag1794
ag1794
aS'they are a'
p1823
ag1823
ag1823
ag1823
ag1823
ag1823
ag1823
ag1823
ag1811
ag1811
ag1811
ag1811
ag1811
ag1811
ag1811
ag1811
ag1811
ag1810
aS'everyone believes'
p1824
ag1821
ag1821
ag1821
ag1821
ag1820
ag1820
ag1820
ag1819
ag1819
ag1819
ag1815
ag1815
ag1815
ag1814
ag1818
aS'they do not know'
p1825
ag1825
ag1825
ag1825
ag1825
aS'will be a catastrophe'
p1826
ag1816
ag1816
ag1816
aS'because it feels'
p1827
ag1827
aS'because I feel'
p1828
ag1828
aS'but I feel'
p1829
ag1829
aS'they will not'
p1830
ag1830
ag1830
aS'you know'
p1831
ag1831
ag1831
ag1831
ag1831
ag1831
ag1831
ag1831
ag1831
ag1831
ag1831
aS'all the time'
p1832
ag1832
ag1832
ag1830
ag1830
ag1830
ag1830
aS'we will not know'
p1833
aS'every single one of them'
p1834
ag1834
aS'a total'
p1835
ag1835
ag1835
ag1835
ag1835
ag1835
ag1835
aS'a huge'
p1836
ag1836
ag1836
ag1836
aS'not important'
p1837
ag1837
ag1837
aS'no matter'
p1838
ag1838
ag1838
ag1838
aS'will go wrong'
p1839
aS'a horrible'
p1840
ag1840
ag1840
ag1840
ag1840
ag1840
ag1840
ag1839
aS'the only thing'
p1841
ag1841
aS'not count'
p1842
ag1842
ag1842
ag1842
ag1842
ag1836
ag1836
ag1836
ag1836
ag1835
ag1835
ag1835
ag1835
ag1835
ag1835
ag1835
ag1835
aS'every single one of you'
p1843
aS'it will not'
p1844
ag1844
ag1844
ag1844
ag1844
ag1844
aS'we will not think'
p1845
aS'you think'
p1846
ag1846
ag1846
ag1846
ag1846
ag1846
ag1846
ag1846
aS'always happens'
p1847
aS'you will not'
p1848
ag1848
ag1848
aS'since I feel'
p1849
aS'but it feels'
p1850
aS'still feels'
p1851
ag1851
aS'since it feels'
p1852
aS'great but'
p1853
ag1853
ag1853
ag1833
aS'that will not'
p1854
ag1854
aS'always like'
p1855
ag1855
ag1831
ag1831
ag1831
ag1831
ag1831
ag1831
ag1831
ag1831
ag1831
ag1831
ag1831
ag1831
ag1831
ag1831
ag1831
ag1831
ag1831
ag1831
ag1831
ag1831
ag1831
ag1831
ag1831
ag1831
ag1831
ag1831
ag1831
aS'we will know'
p1856
ag1856
ag1856
aS'an undesirable'
p1857
ag1857
ag1857
aS'a completely'
p1858
ag1858
ag1858
ag1858
ag1858
aS'a major'
p1859
ag1859
ag1859
ag1859
ag1859
ag1859
ag1859
ag1838
ag1838
ag1838
ag1838
ag1837
ag1837
ag1837
ag1837
aS'a terrible'
p1860
ag1860
ag1860
aS'will end'
p1861
ag1861
ag1861
aS'if I just'
p1862
aS'only the worst'
p1863
ag1863
ag1861
ag1861
ag1860
ag1860
ag1860
aS'best'
p1864
ag1864
ag1864
ag1864
ag1864
ag1864
ag1864
ag1864
aS'not matter'
p1865
ag1865
ag1859
ag1859
ag1859
ag1859
ag1859
ag1859
ag1859
ag1858
ag1858
ag1858
ag1858
ag1858
ag1857
ag1857
aS'we will believe'
p1866
ag1847
ag1847
aS'you believe'
p1867
ag1867
ag1867
ag1867
aS'we will not believe'
p1868
ag1844
ag1844
ag1844
ag1844
ag1851
ag1850
aS'acceptable yet'
p1869
aS'acceptable but'
p1870
ag1870
ag1828
ag1828
aS'good but'
p1871
ag1871
ag1871
aS'we know'
p1872
ag1872
ag1872
ag1872
ag1872
ag1872
ag1872
ag1872
ag1872
ag1872
aS'he will not'
p1873
ag1873
ag1873
ag1856
ag1856
ag1856
ag1846
ag1846
ag1846
ag1846
ag1846
ag1846
ag1846
aS'all of them'
p1874
ag1874
ag1874
ag1874
aS'a burden'
p1875
ag1875
ag1875
aS'a totally'
p1876
ag1876
ag1876
aS'a helpless'
p1877
ag1877
ag1877
aS'nothing good'
p1878
ag1878
aS'a worthless'
p1879
ag1879
aS'will not happen'
p1880
ag1841
ag1841
aS'worst'
p1881
ag1881
ag1881
ag1881
ag1881
ag1881
ag1881
ag1881
aS'the one thing'
p1882
ag1882
ag1880
ag1880
ag1880
ag1879
ag1879
ag1879
aS'nothing right'
p1883
ag1883
ag1877
ag1877
ag1876
ag1876
ag1876
ag1875
ag1875
ag1875
aS'you do not believe'
p1884
ag1884
ag1884
ag1832
ag1832
ag1832
ag1832
ag1832
aS'she will not'
p1885
ag1885
ag1885
aS'we will think'
p1886
ag1886
aS'we think'
p1887
ag1887
ag1887
ag1887
aS'OK but'
p1888
ag1888
ag1888
aS'fine but'
p1889
ag1889
aS'nor'
p1890
ag1890
ag1890
ag1890
ag1871
ag1871
ag1871
ag1871
ag1849
aS'you will not believe'
p1891
ag1891
ag1891
aS'they always'
p1892
ag1892
ag1892
ag1892
ag1874
ag1874
ag1874
ag1874
aS'you do not know'
p1893
ag1893
ag1893
ag1893
ag1893
ag1893
ag1893
ag1893
ag1893
ag1893
ag1893
ag1868
ag1873
ag1873
ag1873
ag1873
ag1873
ag1873
aS'a weak'
p1894
ag1894
ag1894
ag1894
aS'a complete'
p1895
ag1895
ag1895
ag1895
ag1895
ag1895
ag1895
ag1895
ag1895
ag1895
ag1895
ag1895
ag1895
aS'will be impossible'
p1896
ag1896
aS'an unlovable'
p1897
ag1864
ag1864
ag1864
ag1864
ag1864
ag1864
ag1864
ag1864
aS'I see only'
p1898
ag1898
ag1882
ag1882
ag1881
ag1881
ag1881
ag1881
ag1881
ag1881
ag1881
ag1881
ag1881
ag1881
ag1881
ag1897
ag1897
ag1896
ag1896
ag1896
ag1896
ag1895
ag1895
ag1895
ag1895
ag1895
ag1895
ag1895
ag1895
ag1895
ag1894
ag1894
ag1894
ag1894
ag1886
ag1854
ag1854
ag1854
aS'all of the time'
p1899
ag1899
ag1884
ag1884
ag1884
aS'she always'
p1900
ag1900
ag1900
ag1900
aS'you will not know'
p1901
ag1853
ag1853
ag1890
ag1890
ag1890
ag1890
aS'great yet'
p1902
ag1902
aS'not all that'
p1903
ag1903
ag1903
aS'either or'
p1904
ag1904
aS'the worst'
p1905
ag1905
ag1905
ag1905
ag1905
ag1905
ag1905
ag1905
ag1905
aS'not that great'
p1906
ag1906
ag1906
ag1901
ag1901
aS'you will know'
p1907
ag1907
ag1907
aS'we do not know'
p1908
ag1908
ag1908
ag1908
ag1908
aS'he always'
p1909
ag1909
ag1909
ag1909
aS'completely'
p1910
ag1910
ag1910
ag1910
ag1910
ag1910
ag1910
ag1910
ag1910
ag1910
ag1872
ag1872
ag1872
ag1872
ag1872
ag1872
ag1872
ag1872
ag1899
ag1899
aS'an incompetent'
p1911
ag1911
ag1911
ag1911
aS'a damaged'
p1912
ag1912
ag1878
ag1878
aS'completely wrong'
p1913
ag1913
aS'will be terrible'
p1914
aS'completely bad'
p1915
aS'can only think'
p1916
ag1912
ag1912
ag1912
ag1911
ag1911
ag1885
ag1885
aS'happens every time'
p1917
ag1917
aS'we believe'
p1918
ag1918
ag1918
ag1918
aS'we do not believe'
p1919
ag1919
ag1919
ag1919
ag1919
ag1919
aS'you always'
p1920
ag1920
ag1920
ag1920
aS'you will think'
p1921
ag1921
aS'you will not think'
p1922
ag1888
ag1888
ag1905
ag1905
ag1905
ag1905
ag1905
ag1904
ag1904
ag1904
ag1889
ag1889
aS'good yet'
p1923
ag1923
ag1903
ag1903
ag1903
ag1902
ag1902
aS'neither'
p1924
ag1924
ag1924
ag1924
ag1924
aS'black or white'
p1925
ag1925
ag1925
ag1891
aS'I will not'
p1926
ag1926
ag1926
ag1926
aS'they will not think'
p1927
ag1910
ag1910
ag1910
ag1910
ag1910
ag1910
ag1910
ag1910
ag1910
ag1909
ag1909
ag1909
ag1909
ag1887
ag1887
ag1887
ag1887
ag1893
ag1893
ag1893
ag1893
ag1893
aS'an absolute'
p1928
ag1928
ag1928
ag1928
ag1928
ag1928
aS'a broken'
p1929
ag1929
ag1929
ag1929
aS'a hopeless'
p1930
ag1930
ag1883
ag1883
aS'all I can see'
p1931
ag1898
aS'all I see'
p1932
ag1932
ag1916
ag1915
ag1930
ag1930
ag1930
ag1930
ag1929
ag1929
ag1929
ag1928
ag1928
ag1928
aS'you do not think'
p1933
ag1933
ag1900
ag1900
ag1900
ag1900
ag1919
ag1919
ag1919
ag1919
ag1918
ag1918
ag1918
ag1918
ag1918
aS'no one ever'
p1934
ag1934
ag1934
ag1922
ag1922
ag1921
ag1925
ag1925
ag1925
ag1925
ag1924
ag1924
ag1924
ag1924
ag1924
ag1870
ag1870
aS'it was not'
p1935
ag1935
ag1935
ag1935
ag1935
ag1906
ag1906
ag1923
ag1923
aS'worthless'
p1936
ag1936
ag1936
ag1936
ag1936
ag1936
ag1936
ag1936
ag1829
aS'you will believe'
p1937
aS'we will not'
p1938
ag1938
ag1938
ag1938
ag1938
ag1938
ag1938
ag1938
ag1938
ag1938
ag1938
ag1867
ag1867
ag1867
ag1867
ag1867
ag1867
ag1867
ag1867
ag1867
ag1834
aS'they will not know'
p1939
aS'we do not think'
p1940
ag1920
ag1920
ag1920
ag1920
ag1920
ag1920
ag1920
aS'an utter'
p1941
ag1941
aS'a toxic'
p1942
ag1942
ag1942
aS'a loser'
p1943
ag1943
ag1943
ag1865
ag1865
ag1865
aS'only the bad'
p1944
ag1944
ag1932
ag1932
ag1932
ag1932
ag1913
ag1913
ag1842
ag1842
ag1943
ag1943
ag1943
ag1942
ag1942
ag1942
ag1941
ag1941
ag1908
ag1908
ag1908
ag1908
ag1908
ag1908
ag1908
ag1908
ag1908
aS'I always'
p1945
ag1945
ag1945
ag1945
ag1945
ag1945
aS'nobody ever'
p1946
ag1946
ag1946
ag1769
ag1845
ag1848
ag1848
ag1848
ag1907
ag1907
ag1907
ag1829
ag1829
ag1936
ag1936
ag1936
ag1936
ag1936
ag1936
ag1936
aS'OK yet'
p1947
aS'not that good'
p1948
aS'fine yet'
p1949
ag1949
ag1935
ag1935
ag1935
ag1935
ag1935
ag1935
ag1935
ag1935
ag1935
ag1852
aS'ever'
p1950
ag1950
ag1950
ag1950
ag1950
ag1950
ag1950
aS'never'
p1951
ag1951
ag1951
ag1951
ag1951
ag1951
ag1951
ag1951
ag1951
ag1951
ag1951
ag1938
ag1938
ag1938
ag1938
ag1937
ag1855
ag1855
ag1843
ag1940
ag1940
ag1940
ag1939
ag1934
ag1934
ag1934
ag1934
aS'an ugly'
p1952
ag1952
aS'a bad'
p1953
ag1953
ag1953
aS'will fail'
p1954
ag1954
ag1954
ag1954
ag1931
ag1931
ag1944
ag1944
ag1863
ag1931
ag1931
ag1954
ag1954
ag1953
ag1953
ag1953
ag1953
ag1953
ag1952
ag1952
ag1952
ag1927
ag1946
ag1946
ag1945
ag1945
ag1945
ag1866
ag1917
ag1933
ag1933
ag1926
ag1926
ag1926
ag1926
ag1951
ag1951
ag1951
ag1951
ag1951
ag1951
ag1951
ag1951
ag1951
ag1951
ag1951
ag1951
ag1950
ag1950
ag1950
ag1827
ag1948
ag1948
ag1947
aS'no one'
p1955
ag1955
ag1955
ag1955
aS'the best'
p1956
ag1956
ag1956
ag1956
ag1956
ag1956
ag1956
ag1956
ag1956
ag1956
ag1956
aS'should'
p1957
ag1957
ag1957
ag1957
ag1957
ag1957
ag1957
ag1957
ag1957
ag1957
ag1957
ag1957
ag1957
ag1957
ag1957
ag1957
ag1957
ag1957
ag1957
ag1957
ag1957
aS'because I'
p1958
ag1958
ag1958
ag1825
ag1825
aS'they know'
p1959
ag1959
ag1959
ag1959
ag1959
ag1959
aS'I am always'
p1960
ag1960
ag1960
ag1960
ag1804
ag1805
ag1805
aS'he will not know'
p1961
aS'that is an'
p1962
ag1962
ag1962
aS'that is a'
p1963
ag1963
ag1963
aS'if I only'
p1964
ag1824
ag1824
ag1808
ag1808
ag1808
aS'he does not believe'
p1965
aS'everyone knows'
p1966
ag1966
ag1966
ag1966
ag1966
ag1966
aS'if it just'
p1967
ag1967
ag1963
ag1963
ag1962
ag1962
aS'he will not believe'
p1968
aS'he will believe'
p1969
aS'she will not think'
p1970
aS'they think'
p1971
ag1971
ag1971
aS'you are always'
p1972
ag1972
ag1972
ag1972
ag1958
ag1958
ag1958
aS'they do not think'
p1973
ag1973
ag1957
ag1957
ag1957
ag1957
ag1957
ag1957
ag1957
ag1957
ag1957
ag1957
ag1957
ag1957
ag1957
ag1957
ag1956
ag1956
ag1956
ag1955
ag1955
ag1955
ag1955
ag1955
ag1955
aS'perfect'
p1974
ag1974
ag1974
ag1974
ag1974
ag1974
ag1974
ag1974
aS'not a single'
p1975
ag1975
ag1975
aS'everything'
p1976
ag1976
ag1976
ag1976
ag1976
ag1976
ag1976
ag1976
ag1976
ag1976
ag1976
ag1976
ag1976
aS'ought'
p1977
ag1977
ag1977
ag1977
ag1977
ag1977
ag1960
ag1817
aS'they will believe'
p1978
aS'I caused'
p1979
ag1979
ag1979
ag1812
aS'he does not think'
p1980
aS'sucks at'
p1981
aS'everyone thinks'
p1982
ag1982
ag1822
ag1822
aS'it is a'
p1983
ag1983
ag1983
ag1983
ag1983
ag1983
ag1983
ag1983
ag1983
ag1983
ag1967
ag1966
ag1966
ag1966
ag1966
ag1981
ag1969
ag1968
ag1979
ag1979
ag1973
aS'all my'
p1984
ag1984
ag1984
ag1892
ag1892
ag1892
ag1892
ag1971
ag1971
ag1971
ag1971
ag1977
ag1977
ag1977
ag1976
ag1976
ag1976
ag1976
ag1976
ag1976
ag1976
ag1976
ag1975
ag1975
ag1975
ag1975
ag1974
ag1974
ag1974
ag1974
ag1974
ag1974
ag1974
ag1974
ag1974
ag1974
aS'will not end'
p1985
ag1985
aS'everywhere'
p1986
ag1986
ag1986
ag1986
ag1986
ag1986
ag1986
ag1986
ag1986
ag1986
ag1986
ag1986
ag1986
ag1986
ag1986
aS'nobody'
p1987
ag1987
ag1987
ag1987
ag1987
ag1987
aS'have to'
p1988
ag1988
ag1988
ag1988
ag1988
aS'my responsibility'
p1989
ag1989
aS'they believe'
p1990
ag1990
ag1990
ag1990
ag1972
ag1972
ag1972
ag1972
ag1796
ag1796
ag1796
ag1796
aS'they will know'
p1991
ag1991
ag1991
aS'I never'
p1992
ag1992
ag1992
aS'he will not think'
p1993
aS'he does not know'
p1994
ag1994
ag1994
ag1994
aS'everyone will believe'
p1995
ag1964
ag1964
ag1964
ag1964
ag1777
ag1965
ag1961
ag1992
ag1992
ag1992
ag1992
ag1992
ag1992
ag1992
aS'all me'
p1996
ag1996
ag1996
ag1780
ag1959
ag1959
ag1959
ag1959
aS'he is always'
p1997
ag1997
ag1997
ag1997
ag1997
ag1997
ag1989
ag1989
ag1989
ag1989
ag1988
ag1988
ag1988
ag1987
ag1987
ag1987
ag1987
ag1987
ag1987
ag1987
ag1987
ag1987
ag1987
ag1986
ag1986
ag1986
ag1986
ag1985
ag1985
ag1985
aS'nothing'
p1998
ag1998
ag1998
ag1998
ag1998
ag1998
aS'always'
p1999
ag1999
ag1999
ag1999
ag1999
ag1999
ag1999
ag1999
ag1999
ag1999
ag1999
ag1999
ag1999
ag1999
ag1999
ag1999
ag1999
ag1999
aS'must'
p2000
ag2000
ag2000
ag2000
ag2000
ag2000
ag2000
ag2000
ag1782
ag1991
ag1984
ag1984
ag1984
ag1788
ag1990
ag1990
ag1990
aS'suck at'
p2001
aS'I am an'
p2002
ag1994
ag1994
ag1993
ag1778
ag1862
ag1862
ag1995
ag1982
ag1862
ag1862
ag1793
ag1795
ag1795
ag1980
ag2002
ag2002
ag2002
ag2001
ag2001
ag1997
ag1997
ag1997
ag1997
ag1970
ag1978
ag1996
ag1996
ag1996
ag1798
ag2000
ag2000
ag2000
ag2000
ag2000
ag2000
ag2000
ag2000
ag1999
ag1999
ag1999
ag1999
ag1999
ag1999
ag1999
ag1999
ag1999
ag1999
ag1999
ag1999
ag1998
ag1998
ag1998
ag1998
ag1998
ag1998
ag1998
ag1998
ag1998
ag1998
ag1998
ag1998
aS'alles was ich sehe'
p2003
aS'Jede einzelne von'
p2004
aS'Jede Einzelne von'
p2005
aS'Unwichtig'
p2006
aS'UNWICHTIG'
p2007
aS'es war NICHT'
p2008
aS'es war nicht'
p2009
aS'es war Nicht'
p2010
aS'GANZ'
p2011
aS'Man glaubt'
p2012
aS'ich war nie einer'
p2013
aS'ich war nie ein'
p2014
aS'ich war nie eine'
p2015
aS'Wird nicht funktionieren'
p2016
aS'Alle werden glauben'
p2017
aS'Du denkst'
p2018
aS'Du Denkst'
p2019
aS'Jeder wird denken'
p2020
aS'Niemand wird wissen'
p2021
aS'Ihr glaubt nicht'
p2022
aS'du wirst nicht'
p2023
aS'du wirst Nicht'
p2024
aS'Du wirst nicht'
p2025
aS'niemand wird wissen'
p2026
aS'ihr glaubt nicht'
p2027
aS'du denkst'
p2028
aS'jeder wird denken'
p2029
aS'alle werden glauben'
p2030
aS'wird schlecht enden'
p2031
aS'wird schlimm ausgehen'
p2032
aS'wird schlimm enden'
p2033
aS'wird schlecht ausgehen'
p2034
aS'Ich war nie ein'
p2035
aS'Ich war nie eines'
p2036
aS'Ich war nie eine'
p2037
aS'Ich war nie einer'
p2038
aS'man Glaubt'
p2039
aS'man glaubt'
p2040
aS'Es War nicht'
p2041
aS'Es war Nicht'
p2042
aS'Es war NICHT'
p2043
aS'Es war nicht'
p2044
aS'niemand je'
p2045
aS'Ich bin immer'
p2046
aS'unWichtig'
p2047
aS'unwichtig'
p2048
aS'Alles was ich sehe'
p2049
aS'gaNZ'
p2050
aS'gaNz'
p2051
aS'ganZ'
p2052
aS'gAnz'
p2053
aS'ganz'
p2054
aS'Nicht so sehr'
p2055
aS'EGAL'
p2056
aS'Egal'
p2057
aS'jede einzelne von'
p2058
aS'jede Einzelne von'
p2059
aS'nichts richtiges'
p2060
aS'nichts Richtiges'
p2061
aS'er war nie eine'
p2062
aS'er war nie ein'
p2063
aS'er war nie einer'
p2064
aS'Jeder glaubt'
p2065
aS'Jede glaubt'
p2066
aS'wird nicht funktionieren'
p2067
aS'wird versagen'
p2068
aS'wird Versagen'
p2069
aS'Du wirst nicht wissen'
p2070
aS'du glaubst nicht'
p2071
aS'Keiner wird wissen'
p2072
aS'Man wird denken'
p2073
aS'IHR WISST'
p2074
aS'IHR wi\xc3\x9ft'
p2075
aS'Ihr wi\xc3\x9ft'
p2076
aS'Ihr wisst'
p2077
aS'Ihr Wi\xc3\x9ft'
p2078
aS'ihr werdet nicht'
p2079
aS'ich werde nicht'
p2080
aS'ich werde Nicht'
p2081
aS'Ich werde nicht'
p2082
aS'Ich werde Nicht'
p2083
aS'Ich werde NICHT'
p2084
aS'Ihr werdet nicht'
p2085
aS'man wird denken'
p2086
aS'ihr wisst'
p2087
aS'ihr Wisst'
p2088
aS'ihr wi\xc3\x9ft'
p2089
aS'Du glaubst nicht'
p2090
aS'du wirst nicht wissen'
p2091
aS'Eine abscheulich'
p2092
aS'Ein abscheuliches'
p2093
aS'Einen abscheulichen'
p2094
aS'Ein abscheulich'
p2095
aS'Ein abscheulicher'
p2096
aS'Eine abscheuliche'
p2097
aS'Wird nicht klappen'
p2098
aS'ein unbegehrtes'
p2099
aS'eine unbegehrte'
p2100
aS'jeder glaubt'
p2101
aS'jede glaubt'
p2102
aS'Er war nie eine'
p2103
aS'Er war nie ein'
p2104
aS'Er war nie einer'
p2105
aS'Er war nie einem'
p2106
aS'egal'
p2107
aS'egaL'
p2108
aS'jeder einzelne von'
p2109
aS'jeder Einzelne von'
p2110
aS'Total'
p2111
aS'TOTAL'
p2112
aS'TOtal'
p2113
aS'TotaL'
p2114
aS'ToTAL'
p2115
aS'nicht so Sehr'
p2116
aS'nicht so sehr'
p2117
aS'Immer Wie'
p2118
aS'IMMER WIE'
p2119
aS'Immer wie'
p2120
aS'beste'
p2121
aS'beSte'
p2122
aS'passiert jedes Mal'
p2123
aS'ich bin immer'
p2124
aS'jedes Mal'
p2125
aS'jedeS Mal'
p2126
aS'jedes mal'
p2127
aS'es war nie ein'
p2128
aS'es war nie einer'
p2129
aS'es war nie eine'
p2130
aS'Total falsch'
p2131
aS'Total schlecht'
p2132
aS'wenn Ich nur'
p2133
aS'sie waren nie eine'
p2134
aS'sie waren nie ein'
p2135
aS'werden versagen'
p2136
aS'ein widerlich'
p2137
aS'eine widerliche'
p2138
aS'ein widerliches'
p2139
aS'ein widerlicher'
p2140
aS'ein widerliche'
p2141
aS'ein Widerlich'
p2142
aS'ein Widerliches'
p2143
aS'eine widerlich'
p2144
aS'Du weisst nicht'
p2145
aS'Du wei\xc3\x9ft nicht'
p2146
aS'ihr Glaubt'
p2147
aS'ihr glaubt'
p2148
aS'niemand Weiss'
p2149
aS'niemand wei\xc3\x9f'
p2150
aS'niemand Wei\xc3\x9f'
p2151
aS'niemand weiss'
p2152
aS'Ihr werdet wissen'
p2153
aS'es wird Nicht'
p2154
aS'es wird nicht'
p2155
aS'du wirst nicht denken'
p2156
aS'Du wirst nicht denken'
p2157
aS'Es Wird nicht'
p2158
aS'Es wird nicht'
p2159
aS'ihr werdet wissen'
p2160
aS'Ihr glaubt'
p2161
aS'IHR GLAUBT'
p2162
aS'Niemand weiss'
p2163
aS'Niemand Wei\xc3\x9f'
p2164
aS'Niemand wei\xc3\x9f'
p2165
aS'Keiner wird glauben'
p2166
aS'du weisst nicht'
p2167
aS'du wei\xc3\x9ft nicht'
p2168
aS'eine abscheulichen'
p2169
aS'eine abscheulich'
p2170
aS'ein abscheulichen'
p2171
aS'ein abscheulicher'
p2172
aS'ein abscheuliche'
p2173
aS'ein abscheulich'
p2174
aS'ein abscheuliches'
p2175
aS'ein Abscheulicher'
p2176
aS'eine abscheuliche'
p2177
aS'eine Abscheuliche'
p2178
aS'werde versagen'
p2179
aS'wird schiefgehen'
p2180
aS'Wenn es nur'
p2181
aS'Wenn eS nur'
p2182
aS'Wenn Ich nur'
p2183
aS'Wenn ich nur'
p2184
aS'Sie waren nie ein'
p2185
aS'Sie waren nie eine'
p2186
aS'Sie waren nie einer'
p2187
aS'Es war nie ein'
p2188
aS'Es war nie eine'
p2189
aS'total schlecht'
p2190
aS'total falsch'
p2191
aS'du bist immer'
p2192
aS'Beste'
p2193
aS'passiert jedesmal'
p2194
aS'Z\xc3\xa4hlt nicht'
p2195
aS'Z\xc3\x84HLT NICHT'
p2196
aS'er ist immer'
p2197
aS'toTAL'
p2198
aS'total'
p2199
aS'tOtal'
p2200
aS'Schlimmste'
p2201
aS'SCHLIMMSTE'
p2202
aS'Nichts Richtiges'
p2203
aS'wir waren nie ein'
p2204
aS'wir waren nie eine'
p2205
aS'Alle glauben'
p2206
aS'Alle Glauben'
p2207
aS'Komplett falsch'
p2208
aS'sie war nie eine'
p2209
aS'sie war nie ein'
p2210
aS'Schlecht im'
p2211
aS'Schlecht bei'
p2212
aS'wirst versagen'
p2213
aS'wird nicht klappen'
p2214
aS'keine glaubt'
p2215
aS'keiner glaubt'
p2216
aS'Du wei\xc3\x9ft'
p2217
aS'Du WEISST'
p2218
aS'Du Wei\xc3\x9ft'
p2219
aS'Du Weisst'
p2220
aS'Du weisst'
p2221
aS'Ihr wi\xc3\x9ft nicht'
p2222
aS'Ihr wisst nicht'
p2223
aS'niemand wird glauben'
p2224
aS'alle werden denken'
p2225
aS'ihr werdet nicht wissen'
p2226
aS'sie werden nicht'
p2227
aS'Sie werden nicht'
p2228
aS'Sie Werden nicht'
p2229
aS'Ihr werdet nicht wissen'
p2230
aS'Alle werden denken'
p2231
aS'ihr wisst nicht'
p2232
aS'ihr wi\xc3\x9ft nicht'
p2233
aS'Niemand wird glauben'
p2234
aS'Keiner glaubt'
p2235
aS'du Wei\xc3\x9ft'
p2236
aS'du Weisst'
p2237
aS'du weisst'
p2238
aS'du wei\xc3\x9ft'
p2239
aS'du WEISST'
p2240
aS'schlecht Im'
p2241
aS'schlecht im'
p2242
aS'schlecht Beim'
p2243
aS'schlecht bei'
p2244
aS'schlecht beim'
p2245
aS'schlecht Bei'
p2246
aS'komplett falsch'
p2247
aS'komplett schlecht'
p2248
aS'Sie war nie ein'
p2249
aS'Sie war nie einem'
p2250
aS'Sie war nie eine'
p2251
aS'Wir waren nie ein'
p2252
aS'Wir waren nie eine'
p2253
aS'alle Glauben'
p2254
aS'alle glauben'
p2255
aS'Nichts Gutes'
p2256
aS'Nichts gutes'
p2257
aS'schlimmste'
p2258
aS'z\xc3\xa4hlt Nicht'
p2259
aS'z\xc3\xa4hlt nicht'
p2260
aS'Du bist immer'
p2261
aS'weil meine'
p2262
aS'weil mein'
p2263
aS'weil Meine'
p2264
aS'weil Mein'
p2265
aS'nicht so gro\xc3\x9fartig'
p2266
aS'nicht so grossartig'
p2267
aS'du hast immer'
p2268
aS'Ihr seid immer'
p2269
aS'eines Verlierers'
p2270
aS'ich f\xc3\xbchle mich verantwortlich'
p2271
aS'Ich bin verantwortlich'
p2272
aS'imMer'
p2273
aS'immer'
p2274
aS'immEr'
p2275
aS'iMMer'
p2276
aS'immeR'
p2277
aS'iMMER'
p2278
aS'iMmer'
p2279
aS'wird nicht passieren'
p2280
aS'werden nie enden'
p2281
aS'keIne'
p2282
aS'keineN'
p2283
aS'keIn'
p2284
aS'keinen'
p2285
aS'keiNe'
p2286
aS'keiNE'
p2287
aS'keinem'
p2288
aS'keiner'
p2289
aS'keine'
p2290
aS'keiN'
p2291
aS'kein'
p2292
aS'kEIN'
p2293
aS'kEin'
p2294
aS'keines'
p2295
aS'keinE'
p2296
aS'kEine'
p2297
aS'keineR'
p2298
aS'keineS'
p2299
aS'kEIne'
p2300
aS'Das schlimmste'
p2301
aS'Das Schlimmste'
p2302
aS'Wir denken'
p2303
aS'Ich bin einem'
p2304
aS'Ich bin Eine'
p2305
aS'Ich bin Einer'
p2306
aS'Ich BIN ein'
p2307
aS'Ich bin eines'
p2308
aS'Ich bin einen'
p2309
aS'Ich bin einer'
p2310
aS'Ich bin eine'
p2311
aS'Ich bin Ein'
p2312
aS'Ich bin ein'
p2313
aS'Ich Bin ein'
p2314
aS'Ich bin Eines'
p2315
aS'Er glaubt'
p2316
aS'wir denken nicht'
p2317
aS'wir werden denken'
p2318
aS'er wird wissen'
p2319
aS'sie wird wissen'
p2320
aS'Sie denken'
p2321
aS'Sie Denken'
p2322
aS'sie denken'
p2323
aS'sie denKen'
p2324
aS'sie Denken'
p2325
aS'Sie wird wissen'
p2326
aS'Wir werden denken'
p2327
aS'Er wird wissen'
p2328
aS'er glaubt'
p2329
aS'Wir denken nicht'
p2330
aS'ich bin Einer'
p2331
aS'ich Bin ein'
p2332
aS'ich bin Eine'
p2333
aS'ich bin Ein'
p2334
aS'ich bin einem'
p2335
aS'ich bin eine'
p2336
aS'ich bin einen'
p2337
aS'ich bin eines'
p2338
aS'ich BIN ein'
p2339
aS'ich bin ein'
p2340
aS'ich bin einer'
p2341
aS'wir denken'
p2342
aS'wir Denken'
p2343
aS'das SCHLIMMSTE'
p2344
aS'das Schlimmste'
p2345
aS'das schlimmste'
p2346
aS'KEINE'
p2347
aS'KeineR'
p2348
aS'KEIn'
p2349
aS'Ist unm\xc3\xb6glich'
p2350
aS'Gib mir die Schuld'
p2351
aS'Ich f\xc3\xbchle mich verantwortlich'
p2352
aS'Wir sind immer'
p2353
aS'ein hochgradiger'
p2354
aS'eine hochgradig'
p2355
aS'ein hochgradiges'
p2356
aS'eine hochgradige'
p2357
aS'ein hochgradige'
p2358
aS'ein hochgradig'
p2359
aS'Nicht so gro\xc3\x9fartig'
p2360
aS'Ein besch\xc3\xa4digter'
p2361
aS'Ein Besch\xc3\xa4digter'
p2362
aS'Ein besch\xc3\xa4digtes'
p2363
aS'Eine besch\xc3\xa4digte'
p2364
aS'Einen besch\xc3\xa4digten'
p2365
aS'Ich habe Immer'
p2366
aS'Ich habe immer'
p2367
aS'Weil ICH'
p2368
aS'Weil Ich'
p2369
aS'Weil ich'
p2370
aS'JE'
p2371
aS'Weil es sich so anf\xc3\xbchlt'
p2372
aS'Einem total'
p2373
aS'Eine Totale'
p2374
aS'Ein totaler'
p2375
aS'Ein totales'
p2376
aS'Ein Total'
p2377
aS'Einer total'
p2378
aS'Eine totale'
p2379
aS'Eine Total'
p2380
aS'Einem totalen'
p2381
aS'Ein total'
p2382
aS'Einer totalen'
p2383
aS'Einen totalen'
p2384
aS'Eine total'
p2385
aS'Einen total'
p2386
aS'ihr seid immer'
p2387
aS'Du hast immer'
p2388
aS'ein Hilfloses'
p2389
aS'ein hilflos'
p2390
aS'eine Hilflose'
p2391
aS'ein hilfloses'
p2392
aS'ein Hilflos'
p2393
aS'eine hilflose'
p2394
aS'ein hilfloser'
p2395
aS'ein Hilfloser'
p2396
aS'eine hilflos'
p2397
aS'akzeptabel , jedoch'
p2398
aS'akzeptabel , aber'
p2399
aS'akzeptabel , allerdings'
p2400
aS'Ein riesige'
p2401
aS'Einem riesigen'
p2402
aS'Ein riesig'
p2403
aS'Einer riesigen'
p2404
aS'Ein riesiges'
p2405
aS'Eine riesiger'
p2406
aS'Ein riesiger'
p2407
aS'Eines riesigen'
p2408
aS'Eine riesige'
p2409
aS'Eine riesig'
p2410
aS'Einen riesigen'
p2411
aS'ich bin eine Last'
p2412
aS'ich bin verantwortlich'
p2413
aS'verursacht habe'
p2414
aS'sie sind eine Last'
p2415
aS'Wird nicht passieren'
p2416
aS'Wertlos'
p2417
aS'WERTLOS'
p2418
aS'nicht Ein einziges'
p2419
aS'nicht ein Einziges'
p2420
aS'nicht eine Einzige'
p2421
aS'nicht Ein einziger'
p2422
aS'nicht ein einzig'
p2423
aS'nicht eine einzig'
p2424
aS'nicht ein Einziger'
p2425
aS'nicht ein einziger'
p2426
aS'nicht ein einzige'
p2427
aS'nicht ein einziges'
p2428
aS'nicht ein einzigen'
p2429
aS'nicht eine einzige'
p2430
aS'nicht Eine einzige'
p2431
aS'du bist ein'
p2432
aS'du bist Eine'
p2433
aS'du bist Einer'
p2434
aS'du bist einem'
p2435
aS'du bist eine'
p2436
aS'du bist einen'
p2437
aS'du bist Ein'
p2438
aS'du bist eines'
p2439
aS'du Bist ein'
p2440
aS'du bist einer'
p2441
aS'sie Weiss'
p2442
aS'sie WEISS'
p2443
aS'sie wei\xc3\x9f'
p2444
aS'sie Wei\xc3\x9f'
p2445
aS'sie weiss'
p2446
aS'er wird glauben'
p2447
aS'Wir werden nicht glauben'
p2448
aS'Wir werden glauben'
p2449
aS'Keiner wird denken'
p2450
aS'Sie glauben nicht'
p2451
aS'sie wird denken'
p2452
aS'Sie wird denken'
p2453
aS'sie glauben nicht'
p2454
aS'wir werden glauben'
p2455
aS'Er wird glauben'
p2456
aS'wir werden nicht glauben'
p2457
aS'Sie weiss'
p2458
aS'Sie Weiss'
p2459
aS'Sie Wei\xc3\x9f'
p2460
aS'Sie wei\xc3\x9f'
p2461
aS'Du bist eines'
p2462
aS'Du bist ein'
p2463
aS'Du bist Einer'
p2464
aS'Du BIST ein'
p2465
aS'Du bist einen'
p2466
aS'Du bist Ein'
p2467
aS'Du bist einem'
p2468
aS'Du bist eine'
p2469
aS'Du bist Eine'
p2470
aS'Du bist einer'
p2471
aS'Nicht ein einziges'
p2472
aS'Nicht ein Einziges'
p2473
aS'Nicht ein einziger'
p2474
aS'Nicht eine einzige'
p2475
aS'Nicht eine Einzige'
p2476
aS'Nicht ein einzige'
p2477
aS'Nicht ein einzig'
p2478
aS'Nicht ein Einziger'
p2479
aS'wertlos'
p2480
aS'wird schrecklich sein'
p2481
aS'wird nicht enden'
p2482
aS'Verursacht habe'
p2483
aS'Du bist eine Last'
p2484
aS'Wegen Mir'
p2485
aS'Wegen mir'
p2486
aS'ein versager'
p2487
aS'ein Versager'
p2488
aS'er hat immer'
p2489
aS'ein besch\xc3\xa4digtes'
p2490
aS'ein besch\xc3\xa4digter'
p2491
aS'eine besch\xc3\xa4digt'
p2492
aS'eine besch\xc3\xa4digte'
p2493
aS'ein besch\xc3\xa4digt'
p2494
aS'ein Besch\xc3\xa4digter'
p2495
aS'weil es sich so anf\xc3\xbchlt'
p2496
aS'Einer hochgradigen'
p2497
aS'Einen hochgradigen'
p2498
aS'Ein hochgradig'
p2499
aS'Eine hochgradige'
p2500
aS'Eine hochgradig'
p2501
aS'Ein hochgradiges'
p2502
aS'Einem hochgradig'
p2503
aS'Ein hochgradiger'
p2504
aS'Einen hochgradig'
p2505
aS'Sie sind immer'
p2506
aS'je'
p2507
aS'jE'
p2508
aS'wir sind immer'
p2509
aS'Ein schwach'
p2510
aS'Ein schwaches'
p2511
aS'Einer schwach'
p2512
aS'Einem schwachen'
p2513
aS'Einer schwachen'
p2514
aS'Einen schwach'
p2515
aS'Ein Schwacher'
p2516
aS'Ein schwacher'
p2517
aS'Eine schwach'
p2518
aS'Einem Schwachen'
p2519
aS'Einen Schwachen'
p2520
aS'Ein schwache'
p2521
aS'Einer Schwachen'
p2522
aS'Einem schwach'
p2523
aS'Ein Schwach'
p2524
aS'Eine Schwache'
p2525
aS'Einen schwachen'
p2526
aS'Eine Schwach'
p2527
aS'Eines schwachen'
p2528
aS'Eine schwache'
p2529
aS'Ein Schwaches'
p2530
aS'es f\xc3\xbchlt sich so an'
p2531
aS'Okay , aber'
p2532
aS'Okay , allerdings'
p2533
aS'eine schlechten'
p2534
aS'eine Schlecht'
p2535
aS'ein schlecht'
p2536
aS'eine Schlechte'
p2537
aS'ein schlechten'
p2538
aS'eine schlechte'
p2539
aS'eine schlecht'
p2540
aS'ein schlechte'
p2541
aS'ein Schlechter'
p2542
aS'eine schlechtes'
p2543
aS'ein schlechtes'
p2544
aS'ein Schlechte'
p2545
aS'eine schlechter'
p2546
aS'ein Schlecht'
p2547
aS'ein schlechter'
p2548
aS'eine Schlechter'
p2549
aS'ein Schlechtes'
p2550
aS'Es hat immer'
p2551
aS'Aber es f\xc3\xbchlt sich'
p2552
aS'Weil meine'
p2553
aS'Weil Meine'
p2554
aS'Weil mein'
p2555
aS'Weil Mein'
p2556
aS'Er ist eine Last'
p2557
aS'sie ist eine Last'
p2558
aS'Meine tat'
p2559
aS'Meine Tat'
p2560
aS'wird nie enden'
p2561
aS'wird eine Katastrophe sein'
p2562
aS'Sollte'
p2563
aS'SOllte'
p2564
aS'SOLLte'
p2565
aS'SOLLTE'
p2566
aS'NiE'
p2567
aS'NIe'
p2568
aS'NIE'
p2569
aS'Nie'
p2570
aS'nieMand'
p2571
aS'niemand'
p2572
aS'Er wei\xc3\x9f nicht'
p2573
aS'Er weiss nicht'
p2574
aS'er WEISS'
p2575
aS'er Wei\xc3\x9f'
p2576
aS'er weiss'
p2577
aS'er wei\xc3\x9f'
p2578
aS'er Weiss'
p2579
aS'wir wissen nicht'
p2580
aS'wir Wissen nicht'
p2581
aS'sie ist einem'
p2582
aS'sie ist Ein'
p2583
aS'sie ist Eines'
p2584
aS'sie ist eines'
p2585
aS'sie ist eine'
p2586
aS'sie ist ein'
p2587
aS'sie ist einen'
p2588
aS'sie Ist eine'
p2589
aS'sie Ist ein'
p2590
aS'sie ist Eine'
p2591
aS'sie ist einer'
p2592
aS'Sie wird glauben'
p2593
aS'Sie WiSSen'
p2594
aS'Sie WISSEN'
p2595
aS'Sie wissen'
p2596
aS'Sie Wissen'
p2597
aS'Sie wisSen'
p2598
aS'sie wird nicht wissen'
p2599
aS'Sie wird nicht wissen'
p2600
aS'sie wissen'
p2601
aS'sie Wissen'
p2602
aS'sie wird glauben'
p2603
aS'Sie ist Eine'
p2604
aS'Sie Ist ein'
p2605
aS'Sie ist ein'
p2606
aS'Sie ist einem'
p2607
aS'Sie ist eine'
p2608
aS'Sie ist Eines'
p2609
aS'Sie ist Ein'
p2610
aS'Sie Ist eine'
p2611
aS'Sie ist einen'
p2612
aS'Sie ist eines'
p2613
aS'Sie ist einer'
p2614
aS'Er Weiss'
p2615
aS'Er Wei\xc3\x9f'
p2616
aS'Er weiss'
p2617
aS'Er wei\xc3\x9f'
p2618
aS'Wir wissen nicht'
p2619
aS'er weiss nicht'
p2620
aS'er wei\xc3\x9f nicht'
p2621
aS'NIEmand'
p2622
aS'Niemand'
p2623
aS'NieMand'
p2624
aS'NIEMAND'
p2625
aS'nIe'
p2626
aS'nIE'
p2627
aS'nie'
p2628
aS'niE'
p2629
aS'sollte'
p2630
aS'sOllte'
p2631
aS'sollTe'
p2632
aS'soLLTE'
p2633
aS'sollTE'
p2634
aS'Sie ist eine Last'
p2635
aS'meine Tat'
p2636
aS'meine tat'
p2637
aS'Wegen Meiner'
p2638
aS'Wegen meinem'
p2639
aS'Wegen meinen'
p2640
aS'Wegen Mein'
p2641
aS'Wegen meines'
p2642
aS'Wegen mein'
p2643
aS'Wegen meine'
p2644
aS'Wegen meiner'
p2645
aS'er ist eine Last'
p2646
aS'aber es f\xc3\xbchlt sich'
p2647
aS'okay , jedoch'
p2648
aS'okay , allerdings'
p2649
aS'okay , aber'
p2650
aS'ein Kaput'
p2651
aS'sie hat immer'
p2652
aS'Es ist IMMER'
p2653
aS'Es Ist immer'
p2654
aS'Es ist immer'
p2655
aS'Es ist Immer'
p2656
aS'Eines Absoluten'
p2657
aS'Eine absolute'
p2658
aS'Eine absolut'
p2659
aS'Ein absolut'
p2660
aS'Eines absoluten'
p2661
aS'Ein Absolut'
p2662
aS'Einer absolut'
p2663
aS'Einem absoluten'
p2664
aS'Einen absoluten'
p2665
aS'Einem absolut'
p2666
aS'Eine Absolute'
p2667
aS'Einen absolut'
p2668
aS'Ein absoluter'
p2669
aS'Einem Absoluten'
p2670
aS'Ein Absolutes'
p2671
aS'Einen absolute'
p2672
aS'Ein absolute'
p2673
aS'Einen Absoluten'
p2674
aS'Einer absoluten'
p2675
aS'Eines absolut'
p2676
aS'Ein absolutes'
p2677
aS'Es f\xc3\xbchlt sich so an'
p2678
aS'Er hat immer'
p2679
aS'Ein Schlechter'
p2680
aS'Eine schlechte'
p2681
aS'Eine schlechter'
p2682
aS'Einem schlechten'
p2683
aS'Ein schlecht'
p2684
aS'Ein schlechten'
p2685
aS'Ein schlechtes'
p2686
aS'Einen schlecht'
p2687
aS'Einem Schlechten'
p2688
aS'Einen schlechter'
p2689
aS'Einer schlecht'
p2690
aS'Ein Schlechtes'
p2691
aS'Einem schlecht'
p2692
aS'Eine Schlechte'
p2693
aS'Eine schlecht'
p2694
aS'Ein Schlecht'
p2695
aS'Eines schlechten'
p2696
aS'Ein schlechte'
p2697
aS'Einen schlechten'
p2698
aS'Einer schlechten'
p2699
aS'Ein schlechter'
p2700
aS'Sch\xc3\xb6n , aber'
p2701
aS'Gro\xc3\x9fartig , aber'
p2702
aS'ein schwaches'
p2703
aS'eine Schwache'
p2704
aS'ein Schwach'
p2705
aS'ein schwach'
p2706
aS'eine schwach'
p2707
aS'eine Schwach'
p2708
aS'eine schwache'
p2709
aS'eine schwachen'
p2710
aS'ein schwachen'
p2711
aS'ein Schwacher'
p2712
aS'ein schwache'
p2713
aS'eine schwaches'
p2714
aS'eine schwacher'
p2715
aS'ein Schwaches'
p2716
aS'ein schwacher'
p2717
aS'sie ist immer'
p2718
aS'ganz Ich'
p2719
aS'ganz ICH'
p2720
aS'ganz ich'
p2721
aS'Meine Schuld'
p2722
aS'Meine schuld'
p2723
aS'wegen mir'
p2724
aS'wegen Mir'
p2725
aS'wegen MIR'
p2726
aS'Die Beste'
p2727
aS'Die beste'
p2728
aS'nicHts'
p2729
aS'niChts'
p2730
aS'nichts'
p2731
aS'niChtS'
p2732
aS'nIchts'
p2733
aS'nichtS'
p2734
aS'nichTs'
p2735
aS'nimMer'
p2736
aS'nimmer'
p2737
aS'Wir glauben nicht'
p2738
aS'er denKt'
p2739
aS'er Denkt'
p2740
aS'er denkt'
p2741
aS'er denkt nicht'
p2742
aS'Wir werden nicht wissen'
p2743
aS'Er Ist eine'
p2744
aS'Er ist eine'
p2745
aS'Er ist Eine'
p2746
aS'Er ist Ein'
p2747
aS'Er ist einem'
p2748
aS'Er ist eines'
p2749
aS'Er ist einen'
p2750
aS'Er ist ein'
p2751
aS'Er ist Einer'
p2752
aS'Er ist einer'
p2753
aS'Er Ist ein'
p2754
aS'Er ist Eines'
p2755
aS'Sie werden nicht glauben'
p2756
aS'sie wird nicht glauben'
p2757
aS'sie Glauben'
p2758
aS'sie glauben'
p2759
aS'Sie glauben'
p2760
aS'Sie Glauben'
p2761
aS'Sie GLAUBEN'
p2762
aS'Sie wird nicht glauben'
p2763
aS'er ist Eine'
p2764
aS'er ist einer'
p2765
aS'er ist Eines'
p2766
aS'er ist eines'
p2767
aS'er ist ein'
p2768
aS'er ist einem'
p2769
aS'er ist Einer'
p2770
aS'er ist Ein'
p2771
aS'er ist eine'
p2772
aS'er ist einen'
p2773
aS'sie werden nicht glauben'
p2774
aS'Er denkt nicht'
p2775
aS'wir werden nicht wissen'
p2776
aS'wir glauben nicht'
p2777
aS'Er denkt'
p2778
aS'Nimmer'
p2779
aS'NIMMER'
p2780
aS'NIchts'
p2781
aS'NICHTS'
p2782
aS'NiChtS'
p2783
aS'NICHTs'
p2784
aS'NiCHTS'
p2785
aS'Nichts'
p2786
aS'NichtS'
p2787
aS'die Beste'
p2788
aS'die BESTE'
p2789
aS'die beste'
p2790
aS'wegen Meine'
p2791
aS'wegen meiner'
p2792
aS'wegen meinem'
p2793
aS'wegen mein'
p2794
aS'wegen Meines'
p2795
aS'wegen meine'
p2796
aS'wegen meines'
p2797
aS'wegen meinen'
p2798
aS'wegen Meiner'
p2799
aS'wegen Mein'
p2800
aS'Sie sind eine Last'
p2801
aS'Ganz Ich'
p2802
aS'Ganz ich'
p2803
aS'grossartig , aber'
p2804
aS'eine totale'
p2805
aS'eine totalen'
p2806
aS'ein totale'
p2807
aS'ein totalen'
p2808
aS'ein total'
p2809
aS'eine totaler'
p2810
aS'eine Total'
p2811
aS'ein totaler'
p2812
aS'eine Totale'
p2813
aS'ein Totale'
p2814
aS'ein Total'
p2815
aS'eine total'
p2816
aS'ein Totales'
p2817
aS'ein totales'
p2818
aS'es ist Immer'
p2819
aS'es ist immer'
p2820
aS'es ist IMMER'
p2821
aS'Sie hat immer'
p2822
aS'Ein ganzen'
p2823
aS'Einem ganz'
p2824
aS'Eines ganz'
p2825
aS'Eine Ganze'
p2826
aS'Ein ganzes'
p2827
aS'Eine ganz'
p2828
aS'Einer ganz'
p2829
aS'Ein ganz'
p2830
aS'Eines ganzen'
p2831
aS'Einen ganzen'
p2832
aS'Einer ganze'
p2833
aS'Eines Ganz'
p2834
aS'Eine ganzes'
p2835
aS'Ein Ganzes'
p2836
aS'Ein Ganze'
p2837
aS'Einen ganz'
p2838
aS'Ein Ganz'
p2839
aS'Einen Ganzen'
p2840
aS'Einer ganzen'
p2841
aS'Eine ganze'
p2842
aS'Eines Ganzen'
p2843
aS'Ein ganze'
p2844
aS'Ein ganzer'
p2845
aS'Einem ganzen'
p2846
aS'Eine ganzer'
p2847
aS'Eine Ganz'
p2848
aS'Einem Ganzen'
p2849
aS'Ein Ganzer'
p2850
aS'sch\xc3\xb6n , aber'
p2851
aS'sch\xc3\xb6n , Aber'
p2852
aS'sch\xc3\xb6n , allerdings'
p2853
aS'sch\xc3\xb6n , jedoch'
p2854
aS'ein GANZES'
p2855
aS'eine ganzen'
p2856
aS'ein Ganzes'
p2857
aS'eine Ganz'
p2858
aS'eine ganze'
p2859
aS'ein Ganz'
p2860
aS'ein ganZes'
p2861
aS'ein ganzeS'
p2862
aS'eine Ganze'
p2863
aS'eineS ganzen'
p2864
aS'ein ganzen'
p2865
aS'eine Ganzen'
p2866
aS'ein ganze'
p2867
aS'eine ganZe'
p2868
aS'eine GANZE'
p2869
aS'eineS ganz'
p2870
aS'eineS Ganzen'
p2871
aS'ein Ganze'
p2872
aS'eine Ganzes'
p2873
aS'ein GANZ'
p2874
aS'ein ganZ'
p2875
aS'eine ganZ'
p2876
aS'eine ganzes'
p2877
aS'ein ganzes'
p2878
aS'ein Ganzer'
p2879
aS'ein Ganzen'
p2880
aS'eine ganzer'
p2881
aS'eine GANZ'
p2882
aS'eine ganz'
p2883
aS'ein ganz'
p2884
aS'ein GanzeS'
p2885
aS'ein GanZes'
p2886
aS'ein ganzer'
p2887
aS'ein ganzem'
p2888
aS'es hat immer'
p2889
aS'da ich f\xc3\xbchle ,'
p2890
aS'nur Ich'
p2891
aS'nur ich'
p2892
aS'nur ICH'
p2893
aS'Sie haben immer'
p2894
aS'WEder'
p2895
aS'WEDER'
p2896
aS'WeDer'
p2897
aS'Weder'
p2898
aS'Ein Verlierer'
p2899
aS'Das ist eine Last'
p2900
aS'meine Verantwortung'
p2901
aS'meine verantwortung'
p2902
aS'der beste'
p2903
aS'MUss'
p2904
aS'Mu\xc3\x9f'
p2905
aS'MusS'
p2906
aS'MuSS'
p2907
aS'MUSs'
p2908
aS'MUSS'
p2909
aS'Muss'
p2910
aS'MU\xc3\x9f'
p2911
aS'du Glaubst'
p2912
aS'du glaubst'
p2913
aS'Er wird nicht wissen'
p2914
aS'sie sind ein'
p2915
aS'sie sind eines'
p2916
aS'sie sind eine'
p2917
aS'sie sind Einer'
p2918
aS'sie sind einen'
p2919
aS'sie sind Ein'
p2920
aS'sie sind einem'
p2921
aS'sie sind einer'
p2922
aS'sie sind Eine'
p2923
aS'sie sind Eines'
p2924
aS'Sie werden Wissen'
p2925
aS'Sie werden wissen'
p2926
aS'sie werden nicht wissen'
p2927
aS'sie denkt nicht'
p2928
aS'Sie werden nicht wissen'
p2929
aS'Sie denkt nicht'
p2930
aS'Sie sind Eine'
p2931
aS'Sie sind einem'
p2932
aS'Sie sind einen'
p2933
aS'Sie sind Einer'
p2934
aS'Sie sind eines'
p2935
aS'Sie sind Eines'
p2936
aS'Sie sind eine'
p2937
aS'Sie Sind ein'
p2938
aS'Sie sind Ein'
p2939
aS'Sie sind einer'
p2940
aS'Sie sind ein'
p2941
aS'er wird nicht wissen'
p2942
aS'sie werden wissen'
p2943
aS'Du glaubst'
p2944
aS'Der beste'
p2945
aS'muSS'
p2946
aS'mu\xc3\x9f'
p2947
aS'muss'
p2948
aS'musS'
p2949
aS'muSs'
p2950
aS'Meine Verantwortung'
p2951
aS'NUr'
p2952
aS'NuR'
p2953
aS'Nur'
p2954
aS'NUR'
p2955
aS'das ist eine Last'
p2956
aS'ein Verlierer'
p2957
aS'weDer'
p2958
aS'wEDER'
p2959
aS'weder'
p2960
aS'Da ich f\xc3\xbchle ,'
p2961
aS'Wir haben immer'
p2962
aS'eine abSolute'
p2963
aS'ein absoluter'
p2964
aS'ein Absolutes'
p2965
aS'ein absoluten'
p2966
aS'ein absolutes'
p2967
aS'ein absolutem'
p2968
aS'eine absolute'
p2969
aS'ein Absolut'
p2970
aS'ein absolut'
p2971
aS'ein absolute'
p2972
aS'ein Absoluter'
p2973
aS'eine Absolute'
p2974
aS'ein Absolute'
p2975
aS'eine absolutes'
p2976
aS'eine Absolut'
p2977
aS'eine absoluter'
p2978
aS'eine absolut'
p2979
aS'eine absoluten'
p2980
aS'Gut , allerdings'
p2981
aS'Gut , aber'
p2982
aS'Gut , Aber'
p2983
aS'Gut , jedoch'
p2984
aS'die schlimmste'
p2985
aS'die Schlimmste'
p2986
aS'Weil ich f\xc3\xbchle ,'
p2987
aS'meine schuld'
p2988
aS'meine Schuld'
p2989
aS'es ist eine Last'
p2990
aS'SOll'
p2991
aS'SOLl'
p2992
aS'Soll'
p2993
aS'SoLL'
p2994
aS'SOLL'
p2995
aS'SolL'
p2996
aS'das Beste'
p2997
aS'das BESTE'
p2998
aS'das beste'
p2999
aS'ALLES'
p3000
aS'AlLe'
p3001
aS'Alles'
p3002
aS'ALLen'
p3003
ag370
aS'ALLEn'
p3004
aS'AlLE'
p3005
aS'ALler'
p3006
aS'AlleN'
p3007
aS'Allem'
p3008
aS'ALLes'
p3009
aS'AllEs'
p3010
aS'AllEN'
p3011
aS'AllEn'
p3012
aS'ALLER'
p3013
aS'AlleM'
p3014
aS'ALle'
p3015
aS'AllES'
p3016
aS'ALlen'
p3017
ag371
aS'ALLEM'
p3018
aS'Aller'
p3019
aS'ALles'
p3020
aS'AllER'
p3021
aS'Allen'
p3022
aS'AlleS'
p3023
ag373
aS'ALLe'
p3024
aS'ALLEs'
p3025
aS'AllE'
p3026
aS'ALLE'
p3027
ag372
aS'ALLEN'
p3028
aS'Alle'
p3029
aS'Nirgendwo'
p3030
aS'NIRGENDWO'
p3031
aS'Er glaubt nicht'
p3032
aS'Sie glaubt nicht'
p3033
aS'sie werden denken'
p3034
aS'er wird nicht glauben'
p3035
aS'Sie werden denken'
p3036
aS'Er wird nicht glauben'
p3037
aS'sie glaubt nicht'
p3038
aS'Sie werden nicht denken'
p3039
aS'er glaubt nicht'
p3040
aS'nirgendwo'
p3041
aS'nUR'
p3042
aS'nur'
p3043
aS'nUr'
p3044
aS'nuR'
p3045
aS'ich trage die Schuld'
p3046
aS'solL'
p3047
aS'soll'
p3048
aS'sOll'
p3049
aS'soLl'
p3050
aS'soLL'
p3051
aS'Das Beste'
p3052
aS'Das BESTE'
p3053
aS'Das beste'
p3054
aS'eines Versagers'
p3055
aS'Es ist eine Last'
p3056
aS'Nur Ich'
p3057
aS'Nur ich'
p3058
aS'Nur ICH'
p3059
aS'weil ich f\xc3\xbchle ,'
p3060
aS'Die schlimmste'
p3061
aS'Die Schlimmste'
p3062
aS'gut , aber'
p3063
aS'gut , jedoch'
p3064
aS'gut , allerdings'
p3065
aS'gut , Jedoch'
p3066
aS'gut , Aber'
p3067
aS'ihr habt immer'
p3068
aS'entWeder'
p3069
aS'entweder'
p3070
aS'alles Mein'
p3071
aS'alles mein'
p3072
aS'nicht so gut'
p3073
aS'gib mir die Schuld'
p3074
aS'Ausgezeichnet'
p3075
aS'AUSGEZEICHNET'
p3076
aS'M\xc3\x9cSSTE'
p3077
aS'M\xc3\xbc\xc3\x9fte'
p3078
aS'M\xc3\xbcsste'
p3079
aS'ich bin Schuld'
p3080
aS'ich bin schuld'
p3081
aS'Jeden'
p3082
aS'der schlimmste'
p3083
aS'der Schlimmste'
p3084
aS'Wir WiSSen'
p3085
aS'Wir WISSEN'
p3086
aS'Wir wisSen'
p3087
aS'Wir wissen'
p3088
aS'Wir Wissen'
p3089
aS'Sie denkt'
p3090
aS'sie werden glauben'
p3091
aS'er wird denken'
p3092
aS'Er wird denken'
p3093
aS'Sie werden glauben'
p3094
aS'wir WISSEN'
p3095
aS'wir wisSen'
p3096
aS'wir Wissen'
p3097
aS'wir wissen'
p3098
aS'sie denkt'
p3099
aS'Der schlimmste'
p3100
aS'Der Schlimmste'
p3101
aS'Ich bin Schuld'
p3102
aS'Ich bin schuld'
p3103
aS'\xc3\xbcberalL'
p3104
aS'\xc3\x9cberall'
p3105
aS'\xc3\xbcberall'
p3106
aS'\xc3\x9cBERALL'
p3107
aS'ausgeZeichnet'
p3108
aS'ausgezeichnet'
p3109
aS'auSgezeichnet'
p3110
aS'm\xc3\x9cSSte'
p3111
aS'm\xc3\xbcsste'
p3112
aS'm\xc3\x9csste'
p3113
aS'm\xc3\xbcSSte'
p3114
aS'm\xc3\xbc\xc3\x9fte'
p3115
aS'm\xc3\xbcsSte'
p3116
aS'm\xc3\xbcSste'
p3117
aS'Ein Versager'
p3118
aS'eine kompletten'
p3119
aS'eine Komplett'
p3120
aS'eine komplett'
p3121
aS'eine Komplette'
p3122
aS'ein kompletten'
p3123
aS'eine komplette'
p3124
aS'ein komplettes'
p3125
aS'ein komplett'
p3126
aS'eine komplettes'
p3127
aS'eine kompletter'
p3128
aS'ein Komplett'
p3129
aS'ein komplette'
p3130
aS'ein kompletter'
p3131
aS'Nicht so gut'
p3132
aS'jemalS'
p3133
aS'jemals'
p3134
aS'weil ich'
p3135
aS'weil Ich'
p3136
aS'weil ICH'
p3137
aS'sie haben immer'
p3138
aS'ENTWEDER'
p3139
aS'EntWeder'
p3140
aS'Entweder'
p3141
aS'Alles mein'
p3142
aS'Alles Mein'
p3143
aS'aber ich f\xc3\xbchle'
p3144
aS'Schwarz und Weiss'
p3145
aS'Schwarz und Wei\xc3\x9f'
p3146
aS'Schwarz und weiss'
p3147
aS'Schwarz und wei\xc3\x9f'
p3148
aS'Ihr habt immer'
p3149
aS'ich habe immer'
p3150
aS'Einen hilflosen'
p3151
aS'Ein hilflos'
p3152
aS'Einer hilflosen'
p3153
aS'Ein hilfloses'
p3154
aS'Eine hilflose'
p3155
aS'Einem hilflosen'
p3156
aS'Ein hilfloser'
p3157
aS'Eine hilflos'
p3158
aS'ein riesigen'
p3159
aS'eine riesiges'
p3160
aS'eine Riesige'
p3161
aS'ein Riesiges'
p3162
aS'eine riesigen'
p3163
aS'ein riesige'
p3164
aS'eine RIESIGE'
p3165
aS'eine riesige'
p3166
aS'ein Riesiger'
p3167
aS'ein riesig'
p3168
aS'ein riesiges'
p3169
aS'ein riesiger'
p3170
aS'eine riesiger'
p3171
aS'eine riesig'
p3172
aS'ein RIESIGES'
p3173
aS'jeDe'
p3174
aS'jedem'
p3175
aS'jeDen'
p3176
aS'jede'
p3177
aS'jeden'
p3178
aS'jedeN'
p3179
aS'jeDem'
p3180
aS'jeder'
p3181
aS'jeDer'
p3182
aS'jedeM'
p3183
aS'jedeR'
p3184
aS'jedes'
p3185
aS'jedeS'
p3186
aS'jeDes'
p3187
aS'jEden'
p3188
aS'jed'
p3189
aS'jeD'
p3190
aS'Ich trage die Schuld'
p3191
aS'mue\xc3\x9fte'
p3192
aS'muesste'
p3193
aS'PERFEKT'
p3194
aS'Perfekt'
p3195
aS'werden nicht enden'
p3196
aS'Sie denken nicht'
p3197
aS'sie glaubt'
p3198
aS'Sie weiss nicht'
p3199
aS'Sie wei\xc3\x9f nicht'
p3200
aS'wir Glauben'
p3201
aS'wir glauben'
p3202
aS'wir GLAUBEN'
p3203
aS'wir werden wissen'
p3204
aS'Sie wissen nicht'
p3205
aS'Sie Wissen nicht'
p3206
aS'sie wissen nicht'
p3207
aS'sie wissen Nicht'
p3208
aS'Wir werden wissen'
p3209
aS'sie weiss nicht'
p3210
aS'sie wei\xc3\x9f nicht'
p3211
aS'Wir glauben'
p3212
aS'Wir Glauben'
p3213
aS'sie denken nicht'
p3214
aS'Sie glaubt'
p3215
aS'Muesste'
p3216
aS'perfekt'
p3217
aS'aLle'
p3218
aS'allEs'
p3219
aS'alleM'
p3220
aS'alLem'
p3221
aS'alLen'
p3222
aS'allen'
p3223
aS'aLLer'
p3224
ag276
aS'alLes'
p3225
aS'aLLes'
p3226
aS'aLLe'
p3227
aS'aLLE'
p3228
aS'allE'
p3229
aS'alleR'
p3230
aS'allem'
p3231
aS'aLlem'
p3232
aS'aller'
p3233
aS'aLlen'
p3234
aS'alleN'
p3235
aS'alles'
p3236
ag275
aS'aLler'
p3237
ag273
ag274
aS'alLer'
p3238
aS'aLLen'
p3239
aS'alLe'
p3240
aS'alleS'
p3241
aS'alle'
p3242
aS'aLles'
p3243
aS'allES'
p3244
aS'Ein Komplett'
p3245
aS'Ein komplettes'
p3246
aS'Ein komplett'
p3247
aS'Ein kompletter'
p3248
aS'Eine komplett'
p3249
aS'Eine komplette'
p3250
aS'Einen komplett'
p3251
aS'Einen kompletten'
p3252
aS'Ein komplette'
p3253
aS'Einer kompletten'
p3254
aS'eine hoffnungslos'
p3255
aS'ein hoffnungsloser'
p3256
aS'ein hoffnungslos'
p3257
aS'ein hoffnungsloses'
p3258
aS'eine hoffnungslose'
p3259
aS'ein Hoffnungsloser'
p3260
aS'sie sind immer'
p3261
aS'schwarz und Wei\xc3\x9f'
p3262
aS'schwarz und weiss'
p3263
aS'schwarz und wei\xc3\x9f'
p3264
aS'schwarz und Weiss'
p3265
aS'wir haben immer'
p3266
aS'Aber ich f\xc3\xbchle'
p3267
aS'Nicht Wichtig'
p3268
aS'Nicht wichtig'
p3269
aS'die eine sache'
p3270
aS'die eine Sache'
p3271
aS'Jedes Mal'
p3272
aS'JEDES Mal'
p3273
aS'JEDES MAL'
p3274
aS'Jedes mal'
p3275
aS'du warst nie eine'
p3276
aS'du warst nie ein'
p3277
aS'es ist ein'
p3278
aS'es ist einen'
p3279
aS'es ist Ein'
p3280
aS'es ist eine'
p3281
aS'es ist eines'
p3282
aS'es ist einem'
p3283
aS'es ist Einer'
p3284
aS'es ist EIN'
p3285
aS'es ist Eine'
p3286
aS'es ist Einem'
p3287
aS'es ist einer'
p3288
aS'es ist Eines'
p3289
aS'eine giftigen'
p3290
aS'eine giftig'
p3291
aS'ein giftig'
p3292
aS'ein giftigen'
p3293
aS'ein giftiges'
p3294
aS'eine giftige'
p3295
aS'ein giftiger'
p3296
aS'ein giftige'
p3297
aS'Eine widerlich'
p3298
aS'Einen widerlichen'
p3299
aS'Ein widerlich'
p3300
aS'Ein widerliches'
p3301
aS'Eine widerliche'
p3302
aS'Ein widerlicher'
p3303
aS'Niemand denkt'
p3304
aS'du wirst wissen'
p3305
aS'jede wei\xc3\x9f'
p3306
aS'jeder weiss'
p3307
aS'jeder wei\xc3\x9f'
p3308
aS'jeder Wei\xc3\x9f'
p3309
aS'jede weiss'
p3310
aS'jeder Weiss'
p3311
aS'man wird wissen'
p3312
aS'Ihr werdet denken'
p3313
aS'Das wird nicht'
p3314
aS'das wird nicht'
p3315
aS'Man wird wissen'
p3316
aS'ihr werdet denken'
p3317
aS'Du wirst wissen'
p3318
aS'Jeder weiss'
p3319
aS'Jede wei\xc3\x9f'
p3320
aS'Jeder Wei\xc3\x9f'
p3321
aS'JEDER WEISS'
p3322
aS'Jeder wei\xc3\x9f'
p3323
aS'niemand denkt'
p3324
aS'eine schrecklicher'
p3325
aS'eine schrecklichen'
p3326
aS'eine Schreckliche'
p3327
aS'eine schrecklich'
p3328
aS'ein Schrecklich'
p3329
aS'ein schrecklichen'
p3330
aS'ein schreckliches'
p3331
aS'ein Schrecklicher'
p3332
aS'ein schrecklich'
p3333
aS'ein Schreckliches'
p3334
aS'eine schreckliche'
p3335
aS'ein schrecklicher'
p3336
aS'ein schreckliche'
p3337
aS'eine inkompetente'
p3338
aS'ein inkompetenter'
p3339
aS'ein inkompetentes'
p3340
aS'Es ist einer'
p3341
aS'Es ist Einer'
p3342
aS'Es IST eine'
p3343
aS'Es ist EIN'
p3344
aS'Es ist einen'
p3345
aS'Es ist Eines'
p3346
aS'Es IST ein'
p3347
aS'Es ist einem'
p3348
aS'Es ist ein'
p3349
aS'Es Ist ein'
p3350
aS'Es Ist eine'
p3351
aS'Es ist Einem'
p3352
aS'Es IST EIN'
p3353
aS'Es ist EINE'
p3354
aS'Es ist eines'
p3355
aS'Es ist Eine'
p3356
aS'Es ist Ein'
p3357
aS'Es ist eine'
p3358
aS'Du warst nie einer'
p3359
aS'Du warst nie ein'
p3360
aS'Du warst nie eine'
p3361
aS'die einzige Sache'
p3362
aS'alle von ihnen'
p3363
aS'alle von Ihnen'
p3364
aS'nichts GuteS'
p3365
aS'nichts gutes'
p3366
aS'nichts Gutes'
p3367
aS'nicht wichtig'
p3368
aS'Er ist immer'
p3369
aS'Die eine Sache'
p3370
aS'jedesMal'
p3371
aS'jedeSmal'
p3372
aS'jedesmal'
p3373
aS'nur das Schlechte'
p3374
aS'nur die schlimmste'
p3375
aS'nur der Schlechte'
p3376
aS'nur das schlimmste'
p3377
aS'nur das Schlimmste'
p3378
aS'nur die schlechte'
p3379
aS'nur Der schlechte'
p3380
aS'nur der schlimmste'
p3381
aS'nur das schlechte'
p3382
aS'nur der schlechte'
p3383
aS'das ist Eines'
p3384
aS'das ist einer'
p3385
aS'das ist einen'
p3386
aS'das ist ein'
p3387
aS'das ist eines'
p3388
aS'das ist Einer'
p3389
aS'das ist eine'
p3390
aS'das ist einem'
p3391
aS'das ist Ein'
p3392
aS'das ist Eine'
p3393
aS'ein horrendes'
p3394
aS'eine horrend'
p3395
aS'ein horrender'
p3396
aS'ein horrend'
p3397
aS'eine horrende'
p3398
aS'Ein hoffnungsloses'
p3399
aS'Ein Hoffnungsloser'
p3400
aS'Ein hoffnungslos'
p3401
aS'Einen hoffnungslosen'
p3402
aS'Eine hoffnungslose'
p3403
aS'Ein hoffnungsloser'
p3404
aS'Eine hoffnungslos'
p3405
aS'Du denkst nicht'
p3406
aS'Du wirst denken'
p3407
aS'Jeder wird wissen'
p3408
aS'man wei\xc3\x9f'
p3409
aS'man Wei\xc3\x9f'
p3410
aS'man Weiss'
p3411
aS'man weiss'
p3412
aS'ihr werdet glauben'
p3413
aS'Man Weiss'
p3414
aS'Man wei\xc3\x9f'
p3415
aS'Man Wei\xc3\x9f'
p3416
aS'Man weiss'
p3417
aS'Ihr werdet glauben'
p3418
aS'du wirst denken'
p3419
aS'du denkst nicht'
p3420
aS'Ein inkompetentes'
p3421
aS'Ein inkompetenter'
p3422
aS'Eine inkompetente'
p3423
aS'Eine schreckliche'
p3424
aS'Einem schrecklichen'
p3425
aS'Ein schreckliche'
p3426
aS'Ein Schreckliches'
p3427
aS'Einen schrecklichen'
p3428
aS'Ein schrecklich'
p3429
aS'Eine schrecklich'
p3430
aS'Eines schrecklichen'
p3431
aS'Einer schrecklichen'
p3432
aS'Ein schreckliches'
p3433
aS'Ein Schrecklich'
p3434
aS'Einen schrecklich'
p3435
aS'Ein schrecklicher'
p3436
aS'Das ist Ein'
p3437
aS'Das ist Eine'
p3438
aS'Das ist einem'
p3439
aS'Das ist eine'
p3440
aS'Das ist Eines'
p3441
aS'Das ist Einer'
p3442
aS'Das ist ein'
p3443
aS'Das ist einer'
p3444
aS'Das Ist eine'
p3445
aS'Das ist eines'
p3446
aS'Das Ist ein'
p3447
aS'Das IST ein'
p3448
aS'Das ist einen'
p3449
aS'Das ist Einem'
p3450
aS'Nur das schlechte'
p3451
aS'Nur das Schlechte'
p3452
aS'Nur das Schlimmste'
p3453
aS'Nur die schlechte'
p3454
aS'Nur der Schlechte'
p3455
aS'Nur der schlechte'
p3456
aS'Nur die schlimmste'
p3457
aS'Alle von ihnen'
p3458
aS'Alle von Ihnen'
p3459
aS'Sie ist immer'
p3460
aS'ich sehe nur'
p3461
aS'er wird nicht'
p3462
aS'er wird Nicht'
p3463
aS'passiert immer'
p3464
aS'Jeder einzelne von'
p3465
aS'Jeder Einzelne von'
p3466
aS'ihr seid eine'
p3467
aS'ihr seid ein'
p3468
aS'ihr seid einem'
p3469
aS'ihr seid einen'
p3470
aS'ihr seid eines'
p3471
aS'ihr seid einer'
p3472
aS'ihr seid Ein'
p3473
aS'Alle Wissen'
p3474
aS'Alle wissen'
p3475
aS'eine wertlos'
p3476
aS'eine wertlose'
p3477
aS'ein wertlos'
p3478
aS'ein Wertloses'
p3479
aS'ein wertloser'
p3480
aS'ein wertloses'
p3481
aS'ein H\xc3\xa4\xc3\x9fliches'
p3482
aS'eine h\xc3\xa4\xc3\x9flichen'
p3483
aS'eine h\xc3\xa4\xc3\x9flicher'
p3484
aS'ein H\xc3\xa4\xc3\x9flicher'
p3485
aS'eine h\xc3\xa4\xc3\x9fliche'
p3486
aS'ein h\xc3\xa4\xc3\x9flich'
p3487
aS'ein h\xc3\xa4\xc3\x9fliches'
p3488
aS'ein h\xc3\xa4\xc3\x9fliche'
p3489
aS'eine H\xc3\xa4\xc3\x9fliche'
p3490
aS'ein h\xc3\xa4\xc3\x9flicher'
p3491
aS'eine h\xc3\xa4\xc3\x9flich'
p3492
aS'ist unmoeglich'
p3493
aS'ist UNM\xc3\x96GLICH'
p3494
aS'ist unm\xc3\xb6glich'
p3495
aS'ist Unm\xc3\xb6glich'
p3496
aS'alle werden wissen'
p3497
aS'Du wirst nicht glauben'
p3498
aS'ihr denkt nicht'
p3499
aS'jede denkt'
p3500
aS'jeder denkt'
p3501
aS'IHR DENKT'
p3502
aS'Ihr denkt'
p3503
aS'ihr denkt'
p3504
aS'Ihr denkt nicht'
p3505
aS'Jeder denkt'
p3506
aS'Jede denkt'
p3507
aS'Alle werden wissen'
p3508
aS'du wirst nicht glauben'
p3509
aS'Ein giftiger'
p3510
aS'Einen giftigen'
p3511
aS'Eine giftige'
p3512
aS'Eine giftig'
p3513
aS'Einer giftigen'
p3514
aS'Ein giftig'
p3515
aS'Ein giftiges'
p3516
aS'alle Wissen'
p3517
aS'alle wissen'
p3518
aS'Ihr seid eine'
p3519
aS'Ihr seid Einer'
p3520
aS'Ihr seid eines'
p3521
aS'Ihr seid ein'
p3522
aS'Ihr seid Ein'
p3523
aS'Ihr seid einen'
p3524
aS'Ihr seid einer'
p3525
aS'Ihr seid einem'
p3526
aS'Niemand je'
p3527
aS'kann nur denken'
p3528
aS'Ich sehe nur'
p3529
aS'Er wird nicht'
p3530
aS'Er wird Nicht'
p3531
aS'alles , was ich sehe'
p3532
aS'alles , was ich sehen'
p3533
aS'Passiert immer'
p3534
aS'Sie wird nicht'
p3535
aS'aber'
p3536
aS'aBer'
p3537
aS'abEr'
p3538
aS'Die einzige Sache'
p3539
aS'wir sind Einer'
p3540
aS'wir sind Ein'
p3541
aS'wir sind ein'
p3542
aS'wir sind eines'
p3543
aS'wir sind einem'
p3544
aS'wir sind einer'
p3545
aS'wir sind Eine'
p3546
aS'wir sind einen'
p3547
aS'wir sind Eines'
p3548
aS'wir sind eine'
p3549
aS'Einem h\xc3\xa4\xc3\x9flichen'
p3550
aS'Einer h\xc3\xa4\xc3\x9flichen'
p3551
aS'Eine H\xc3\xa4\xc3\x9fliche'
p3552
aS'Ein h\xc3\xa4\xc3\x9flicher'
p3553
aS'Ein h\xc3\xa4\xc3\x9fliches'
p3554
aS'Ein H\xc3\xa4\xc3\x9flicher'
p3555
aS'Eine h\xc3\xa4\xc3\x9flich'
p3556
aS'Ein h\xc3\xa4\xc3\x9flich'
p3557
aS'Einen h\xc3\xa4\xc3\x9flichen'
p3558
aS'Eine h\xc3\xa4\xc3\x9fliche'
p3559
aS'Ein wertloses'
p3560
aS'Eine wertlose'
p3561
aS'Einen wertlosen'
p3562
aS'Ein wertlos'
p3563
aS'Ein wertloser'
p3564
aS'Alle denken'
p3565
aS'Du wirst glauben'
p3566
aS'ihr werdet nicht glauben'
p3567
aS'jeder wird glauben'
p3568
aS'Niemand wird denken'
p3569
aS'wir werden nicht'
p3570
aS'Wir werden nicht'
p3571
aS'niemand wird denken'
p3572
aS'Ihr werdet nicht glauben'
p3573
aS'Jeder wird glauben'
p3574
aS'alle Denken'
p3575
aS'alle denken'
p3576
aS'du wirst glauben'
p3577
aS'Ein horrendes'
p3578
aS'Eine horrende'
p3579
aS'Ein horrender'
p3580
aS'Ich bin eine Last'
p3581
aS'Wir sind ein'
p3582
aS'Wir sind Einer'
p3583
aS'Wir sind Eine'
p3584
aS'Wir sind eine'
p3585
aS'Wir sind Ein'
p3586
aS'Wir sind EIN'
p3587
aS'Wir sind Eines'
p3588
aS'Wir sind einer'
p3589
aS'Wir sind einen'
p3590
aS'Wir sind einem'
p3591
aS'Wir sind eines'
p3592
aS'sie wird nicht'
p3593
aS'ABer'
p3594
aS'AbEr'
p3595
aS'ABER'
p3596
aS'AbER'
p3597
aS'ABEr'
p3598
aS'Aber'
p3599
aS'Alles , was ich sehen'
p3600
aS'Alles , was ich sehe'
p3601
aS'immer wie'
p3602
aS'immer Wie'
p3603
aFnan
aFnan
aFnan
aFnan
aFnan
aFnan
aFnan
aFnan
aFnan
aFnan
aFnan
aFnan
aFnan
aFnan
aFnan
aFnan
aFnan
aFnan
aFnan
aFnan
aFnan
aFnan
aFnan
aFnan
aFnan
aFnan
aFnan
aFnan
aFnan
aFnan
aFnan
aFnan
aFnan
aFnan
aFnan
aFnan
aFnan
aFnan
aFnan
aFnan
aFnan
aFnan
aFnan
aFnan
aFnan
aFnan
aFnan
aS'Mental Filtering'
p3604
aS'Overgeneralizing'
p3605
ag3605
aS'Magnification and Minimization'
p3606
ag3606
aS'Disqualifying the Positive'
p3607
ag3607
ag3607
ag3605
aS'Mindreading'
p3608
aS'Labeling and mislabeling'
p3609
ag3609
ag3609
aS'Catastrophizing'
p3610
ag3608
ag3608
ag3608
ag3608
ag3608
ag3608
aS'Fortune-telling'
p3611
ag3611
ag3611
ag3608
ag3608
ag3608
ag3608
ag3608
ag3610
ag3610
ag3610
ag3610
ag3609
ag3609
ag3609
ag3609
ag3608
ag3608
ag3607
ag3607
ag3607
ag3607
ag3605
ag3605
ag3606
ag3606
ag3604
ag3605
ag3605
ag3605
ag3605
ag3605
ag3607
ag3606
ag3606
ag3605
ag3605
ag3604
ag3604
ag3609
ag3609
ag3609
ag3608
ag3608
ag3610
ag3610
ag3610
ag3608
ag3608
ag3608
ag3608
ag3608
ag3608
ag3608
ag3608
ag3608
ag3611
ag3611
ag3611
ag3611
ag3611
ag3611
ag3611
ag3608
ag3608
ag3608
ag3608
ag3608
ag3608
ag3609
ag3609
ag3609
ag3609
ag3609
ag3609
ag3610
ag3609
ag3609
ag3608
ag3608
ag3609
ag3609
ag3609
ag3609
ag3606
ag3606
ag3605
ag3605
ag3605
ag3605
ag3605
ag3605
ag3605
ag3607
ag3607
ag3605
ag3605
ag3605
ag3606
ag3606
ag3605
ag3605
ag3605
ag3605
ag3605
ag3609
ag3609
ag3609
ag3604
ag3604
ag3604
ag3609
ag3609
ag3610
ag3609
ag3609
ag3609
ag3609
ag3609
ag3609
ag3609
ag3609
ag3608
ag3608
ag3608
ag3608
ag3608
ag3608
ag3608
ag3608
ag3608
ag3611
ag3611
ag3608
ag3608
ag3611
ag3611
ag3608
ag3608
ag3608
ag3608
ag3608
ag3608
ag3608
ag3608
ag3608
ag3609
ag3609
ag3609
ag3609
ag3609
ag3609
ag3609
ag3609
ag3609
ag3609
ag3610
ag3610
ag3604
ag3604
ag3604
ag3604
ag3609
ag3609
ag3609
ag3609
ag3609
ag3604
ag3604
ag3605
ag3606
ag3605
ag3606
ag3606
ag3605
ag3605
ag3605
ag3605
ag3606
ag3606
ag3604
ag3609
ag3609
ag3608
ag3608
ag3604
ag3609
ag3609
ag3609
ag3609
ag3610
ag3610
ag3608
ag3608
ag3608
ag3608
ag3608
ag3608
ag3608
ag3608
ag3608
ag3608
ag3608
ag3608
ag3611
ag3611
ag3611
ag3608
ag3608
ag3608
ag3608
ag3608
ag3608
ag3608
ag3608
ag3608
ag3608
ag3608
ag3609
ag3609
ag3609
ag3609
ag3609
ag3609
ag3604
ag3604
ag3609
ag3609
ag3609
ag3609
ag3609
ag3608
ag3608
ag3604
ag3604
ag3606
ag3606
ag3606
ag3605
aS'Personalizing'
p3612
ag3612
ag3612
ag3612
ag3607
ag3607
ag3605
ag3605
ag3609
ag3612
ag3612
ag3605
ag3605
ag3605
ag3605
ag3605
ag3605
ag3605
ag3610
ag3610
aS'Dichotomous Reasoning'
p3613
ag3613
ag3613
ag3613
ag3613
ag3613
ag3613
ag3613
ag3613
ag3613
ag3613
ag3613
ag3613
ag3613
ag3613
ag3613
ag3613
ag3613
ag3613
ag3613
ag3613
ag3608
ag3609
ag3609
ag3609
ag3609
ag3609
ag3609
ag3609
ag3609
ag3609
ag3609
ag3609
ag3609
ag3608
ag3608
ag3608
ag3608
ag3608
ag3608
ag3608
ag3608
ag3608
ag3608
ag3608
ag3608
ag3608
ag3608
ag3608
ag3609
ag3609
ag3609
ag3609
ag3609
ag3609
ag3609
ag3609
ag3609
ag3609
ag3609
ag3608
ag3608
ag3613
ag3613
ag3613
ag3613
ag3613
ag3613
ag3610
ag3612
ag3612
ag3605
ag3609
ag3609
ag3609
ag3609
ag3609
ag3609
ag3607
ag3609
ag3609
ag3609
ag3609
ag3609
ag3605
ag3605
ag3612
ag3612
ag3612
ag3613
aS'Emotional Reasoning'
p3614
ag3609
ag3609
ag3609
ag3609
ag3609
ag3609
ag3609
ag3609
ag3609
ag3609
ag3609
ag3609
ag3609
ag3609
ag3605
ag3605
ag3609
ag3609
ag3609
ag3609
ag3609
ag3609
ag3609
ag3609
ag3609
ag3607
ag3607
ag3607
ag3609
ag3609
ag3609
ag3609
ag3609
ag3609
ag3609
ag3609
ag3609
ag3609
ag3609
ag3609
ag3612
ag3612
ag3609
ag3610
ag3613
ag3613
ag3613
ag3613
ag3613
ag3613
ag3613
ag3613
ag3613
ag3613
ag3613
ag3613
ag3613
ag3613
ag3613
ag3609
ag3609
ag3609
ag3609
ag3609
ag3609
ag3609
ag3609
ag3609
ag3609
ag3608
ag3608
ag3608
ag3608
ag3608
ag3608
ag3608
ag3608
ag3608
ag3608
ag3608
ag3608
ag3608
ag3608
ag3608
ag3608
ag3608
ag3608
ag3608
ag3608
ag3609
ag3609
ag3609
ag3609
ag3609
ag3609
ag3609
ag3609
ag3609
ag3609
ag3613
ag3613
ag3613
ag3613
ag3613
ag3613
ag3613
ag3613
ag3613
ag3610
ag3610
ag3612
ag3609
ag3612
ag3612
ag3609
ag3609
ag3605
ag3609
ag3609
ag3609
ag3609
ag3609
ag3609
ag3614
ag3609
ag3609
ag3609
ag3609
ag3609
ag3609
ag3609
ag3609
ag3609
ag3605
ag3613
ag3613
ag3605
ag3609
ag3609
ag3609
ag3609
ag3609
ag3609
ag3609
ag3609
ag3609
ag3609
ag3609
ag3609
ag3609
ag3609
ag3609
ag3609
ag3609
ag3609
ag3609
ag3609
ag3609
ag3614
ag3607
ag3607
ag3609
ag3609
ag3609
ag3609
ag3609
ag3609
ag3609
ag3609
ag3609
ag3609
ag3609
ag3609
ag3609
ag3609
ag3609
ag3609
ag3609
ag3605
ag3614
ag3612
ag3612
ag3612
ag3612
ag3609
ag3609
ag3612
ag3612
ag3610
ag3610
aS'Should statements'
p3615
ag3615
ag3615
ag3615
ag3613
ag3613
ag3613
ag3613
ag3613
ag3613
ag3608
ag3608
ag3608
ag3608
ag3608
ag3608
ag3608
ag3608
ag3608
ag3609
ag3609
ag3609
ag3609
ag3609
ag3609
ag3609
ag3609
ag3609
ag3609
ag3609
ag3608
ag3608
ag3608
ag3608
ag3608
ag3608
ag3608
ag3608
ag3608
ag3608
ag3608
ag3609
ag3609
ag3609
ag3609
ag3609
ag3609
ag3609
ag3609
ag3609
ag3609
ag3609
ag3608
ag3608
ag3608
ag3608
ag3608
ag3608
ag3608
ag3613
ag3613
ag3613
ag3613
ag3613
ag3613
ag3613
ag3613
ag3615
ag3615
ag3615
ag3615
ag3615
ag3609
ag3612
ag3612
ag3612
ag3612
ag3612
ag3612
ag3612
ag3612
ag3612
ag3612
ag3609
ag3614
ag3607
ag3607
ag3607
ag3609
ag3605
ag3605
ag3605
ag3605
ag3605
ag3609
ag3609
ag3609
ag3609
ag3609
ag3609
ag3609
ag3609
ag3609
ag3609
ag3609
ag3609
ag3609
ag3609
ag3609
ag3609
ag3609
ag3609
ag3609
ag3609
ag3609
ag3614
ag3605
ag3609
ag3609
ag3609
ag3609
ag3609
ag3609
ag3609
ag3609
ag3609
ag3609
ag3609
ag3609
ag3609
ag3609
ag3609
ag3609
ag3609
ag3609
ag3609
ag3609
ag3609
ag3607
ag3607
ag3609
ag3609
ag3609
ag3609
ag3609
ag3609
ag3609
ag3609
ag3609
ag3609
ag3609
ag3609
ag3609
ag3609
ag3609
ag3605
ag3612
ag3612
ag3612
ag3612
ag3612
ag3612
ag3612
ag3612
ag3613
ag3613
ag3613
ag3613
ag3613
ag3613
ag3613
ag3613
ag3613
ag3613
ag3613
ag3608
ag3608
ag3608
ag3608
ag3608
ag3608
ag3609
ag3609
ag3609
ag3609
ag3609
ag3609
ag3609
ag3609
ag3609
ag3609
ag3609
ag3609
ag3608
ag3608
ag3608
ag3608
ag3608
ag3608
ag3608
ag3608
ag3609
ag3609
ag3609
ag3609
ag3609
ag3609
ag3609
ag3609
ag3609
ag3609
ag3608
ag3608
ag3608
ag3608
ag3608
ag3613
ag3613
ag3613
ag3613
ag3613
ag3613
ag3613
ag3613
ag3613
ag3613
ag3613
ag3613
ag3612
ag3612
ag3612
ag3612
ag3612
ag3612
ag3612
ag3612
ag3612
ag3612
ag3609
ag3612
ag3612
ag3607
ag3609
ag3609
ag3609
ag3609
ag3609
ag3609
ag3609
ag3609
ag3609
ag3609
ag3609
ag3609
ag3609
ag3609
ag3605
ag3605
ag3605
ag3605
ag3609
ag3609
ag3609
ag3609
ag3609
ag3609
ag3609
ag3609
ag3609
ag3609
ag3609
ag3609
ag3609
ag3609
ag3609
ag3609
ag3609
ag3609
ag3609
ag3609
ag3609
ag3609
ag3609
ag3609
ag3609
ag3609
ag3609
ag3609
ag3607
ag3607
ag3607
ag3607
ag3609
ag3609
ag3609
ag3609
ag3609
ag3609
ag3609
ag3609
ag3609
ag3609
ag3609
ag3609
ag3609
ag3609
ag3609
ag3609
ag3609
ag3609
ag3609
ag3609
ag3609
ag3609
ag3609
ag3609
ag3609
ag3609
ag3609
ag3609
ag3609
ag3609
ag3609
ag3609
ag3609
ag3609
ag3605
ag3614
ag3612
ag3612
ag3612
ag3605
ag3613
ag3613
ag3613
ag3613
ag3609
ag3609
ag3612
ag3612
ag3613
ag3615
ag3615
ag3615
ag3615
ag3615
ag3615
ag3615
ag3615
ag3608
ag3608
ag3608
ag3609
ag3609
ag3609
ag3609
ag3609
ag3609
ag3609
ag3609
ag3609
ag3609
ag3608
ag3608
ag3608
ag3608
ag3608
ag3608
ag3609
ag3609
ag3609
ag3609
ag3609
ag3609
ag3609
ag3609
ag3609
ag3609
ag3609
ag3608
ag3608
ag3608
ag3613
ag3615
ag3615
ag3615
ag3615
ag3615
ag3612
ag3613
ag3613
ag3613
ag3613
ag3609
ag3609
ag3613
ag3613
ag3613
ag3614
ag3605
ag3609
ag3609
ag3609
ag3609
ag3609
ag3609
ag3609
ag3609
ag3609
ag3609
ag3609
ag3609
ag3609
ag3609
ag3609
ag3609
ag3609
ag3609
ag3607
ag3607
ag3607
ag3607
ag3613
ag3613
ag3614
ag3612
ag3612
ag3609
ag3615
ag3615
ag3615
ag3615
ag3615
ag3615
ag3613
ag3613
ag3613
ag3613
ag3613
ag3613
ag3613
ag3613
ag3613
ag3613
ag3613
ag3613
ag3613
ag3613
ag3613
ag3613
ag3613
ag3613
ag3613
ag3613
ag3613
ag3613
ag3613
ag3613
ag3613
ag3613
ag3613
ag3613
ag3613
ag3613
ag3613
ag3613
ag3613
ag3613
ag3613
ag3613
ag3613
ag3613
ag3613
ag3608
ag3608
ag3608
ag3608
ag3608
ag3608
ag3608
ag3608
ag3608
ag3613
ag3613
ag3613
ag3613
ag3613
ag3612
ag3615
ag3615
ag3615
ag3615
ag3615
ag3613
ag3613
ag3613
ag3609
ag3609
ag3612
ag3612
ag3612
ag3614
ag3613
ag3613
ag3607
ag3607
ag3607
ag3607
ag3607
ag3605
ag3613
ag3613
ag3612
ag3612
ag3607
ag3612
ag3613
ag3613
ag3615
ag3615
ag3615
ag3612
ag3612
ag3613
ag3613
ag3613
ag3608
ag3608
ag3608
ag3608
ag3608
ag3608
ag3608
ag3608
ag3608
ag3608
ag3608
ag3608
ag3608
ag3608
ag3608
ag3613
ag3613
ag3612
ag3612
ag3613
ag3613
ag3613
ag3613
ag3613
ag3613
ag3613
ag3615
ag3615
ag3615
ag3615
ag3615
ag3615
ag3615
ag3609
ag3609
ag3609
ag3609
ag3609
ag3609
ag3609
ag3609
ag3609
ag3609
ag3609
ag3609
ag3609
ag3609
ag3607
ag3613
ag3613
ag3612
ag3612
ag3612
ag3605
ag3613
ag3613
ag3613
ag3612
ag3612
ag3614
ag3613
ag3613
ag3613
ag3613
ag3605
ag3605
ag3609
ag3609
ag3609
ag3609
ag3609
ag3609
ag3609
ag3609
ag3609
ag3609
ag3609
ag3609
ag3609
ag3609
ag3609
ag3609
ag3609
ag3609
ag3609
ag3609
ag3609
ag3609
ag3609
ag3613
ag3613
ag3613
ag3613
ag3613
ag3613
ag3613
ag3613
ag3613
ag3613
ag3613
ag3613
ag3613
ag3613
ag3613
ag3613
ag3613
ag3612
ag3615
ag3615
ag3613
ag3613
ag3610
ag3608
ag3608
ag3608
ag3608
ag3608
ag3608
ag3608
ag3608
ag3608
ag3608
ag3608
ag3608
ag3608
ag3608
ag3608
ag3608
ag3608
ag3608
ag3608
ag3615
ag3613
ag3613
ag3613
ag3613
ag3613
ag3613
ag3613
ag3613
ag3613
ag3613
ag3613
ag3613
ag3613
ag3613
ag3613
ag3613
ag3613
ag3613
ag3613
ag3613
ag3613
ag3613
ag3613
ag3613
ag3613
ag3613
ag3613
ag3613
ag3613
ag3613
ag3613
ag3613
ag3609
ag3609
ag3609
ag3609
ag3609
ag3609
ag3609
ag3609
ag3609
ag3609
ag3609
ag3609
ag3609
ag3609
ag3609
ag3609
ag3605
ag3613
ag3613
ag3613
ag3613
ag3605
ag3614
ag3606
ag3606
ag3606
ag3606
ag3605
ag3605
ag3605
ag3605
ag3609
ag3609
ag3609
ag3609
ag3609
ag3609
ag3609
ag3609
ag3609
ag3609
ag3609
ag3609
ag3609
ag3609
ag3609
ag3609
ag3609
ag3609
ag3609
ag3609
ag3609
ag3609
ag3609
ag3609
ag3609
ag3609
ag3609
ag3609
ag3608
ag3608
ag3608
ag3608
ag3608
ag3608
ag3608
ag3608
ag3608
ag3608
ag3611
ag3611
ag3608
ag3608
ag3608
ag3608
ag3608
ag3608
ag3608
ag3608
ag3608
ag3609
ag3609
ag3609
ag3609
ag3609
ag3609
ag3609
ag3609
ag3609
ag3609
ag3609
ag3609
ag3609
ag3609
ag3609
ag3609
ag3609
ag3609
ag3609
ag3609
ag3609
ag3609
ag3609
ag3609
ag3609
ag3609
ag3609
ag3609
ag3609
ag3609
ag3609
ag3609
ag3609
ag3609
ag3609
ag3609
ag3609
ag3606
ag3605
ag3605
ag3604
ag3604
ag3604
ag3606
ag3605
ag3606
ag3605
ag3605
ag3605
ag3604
ag3604
ag3604
ag3604
ag3604
ag3604
ag3604
ag3604
ag3604
ag3604
ag3609
ag3609
ag3609
ag3609
ag3609
ag3609
ag3609
ag3609
ag3609
ag3609
ag3609
ag3609
ag3609
ag3609
ag3609
ag3609
ag3609
ag3609
ag3609
ag3609
ag3609
ag3609
ag3608
ag3608
ag3608
ag3608
ag3608
ag3608
ag3608
ag3608
ag3608
ag3608
ag3608
ag3608
ag3608
ag3608
ag3608
ag3609
ag3609
ag3609
ag3609
ag3609
ag3609
ag3609
ag3609
ag3609
ag3609
ag3609
ag3609
ag3609
ag3609
ag3609
ag3609
ag3609
ag3609
ag3609
ag3609
ag3609
ag3609
ag3609
ag3609
ag3609
ag3609
ag3609
ag3609
ag3609
ag3609
ag3604
ag3604
ag3604
ag3604
ag3604
ag3604
ag3604
ag3605
ag3605
ag3605
ag3604
ag3611
ag3611
ag3605
ag3605
ag3605
ag3609
ag3609
ag3609
ag3609
ag3609
ag3609
ag3609
ag3608
ag3608
ag3609
ag3609
ag3609
ag3609
ag3609
ag3609
ag3609
ag3609
ag3609
ag3609
ag3609
ag3609
ag3609
ag3609
ag3609
ag3609
ag3609
ag3610
ag3610
ag3610
ag3610
ag3608
ag3608
ag3608
ag3608
ag3608
ag3608
ag3608
ag3608
ag3608
ag3608
ag3608
ag3608
ag3608
ag3609
ag3609
ag3609
ag3609
ag3609
ag3609
ag3609
ag3608
ag3608
ag3609
ag3609
ag3609
ag3609
ag3609
ag3609
ag3609
ag3609
ag3605
ag3604
ag3604
ag3611
ag3611
ag3604
ag3604
ag3605
ag3611
ag3606
ag3606
ag3606
ag3606
ag3609
ag3609
ag3609
ag3609
ag3609
ag3609
ag3609
ag3609
ag3609
ag3609
ag3609
ag3609
ag3609
ag3609
ag3609
ag3609
ag3609
ag3609
ag3609
ag3609
ag3609
ag3609
ag3609
ag3609
ag3609
ag3608
ag3608
ag3608
ag3608
ag3608
ag3611
ag3611
ag3608
ag3608
ag3608
ag3608
ag3608
ag3608
ag3609
ag3609
ag3609
ag3609
ag3609
ag3609
ag3609
ag3609
ag3609
ag3609
ag3609
ag3609
ag3609
ag3609
ag3609
ag3611
ag3606
ag3606
ag3606
ag3606
ag3606
ag3606
ag3604
ag3604
ag3605
ag3605
aFnan
aFnan
aFnan
aFnan
aFnan
aFnan
aFnan
aFnan
aFnan
aFnan
aFnan
aFnan
aFnan
aFnan
aFnan
aFnan
aFnan
aFnan
aFnan
aFnan
aFnan
aFnan
aFnan
aFnan
aFnan
aFnan
aFnan
aFnan
aFnan
aFnan
aFnan
aFnan
aFnan
aFnan
aFnan
aFnan
aFnan
aFnan
aFnan
aFnan
aFnan
aFnan
aFnan
aFnan
aFnan
aFnan
aFnan
aS'alles was ich sehe'
p3616
aS'jede einzelne von'
p3617
ag3617
aS'unwichtig'
p3618
ag3618
aS'es war nicht'
p3619
ag3619
ag3619
aS'ganz'
p3620
aS'man glaubt'
p3621
aS'ich war nie ein(e|em|en|er|es)?'
p3622
ag3622
ag3622
aS'wird nicht funktionieren'
p3623
aS'alle werden glauben'
p3624
aS'du denkst'
p3625
ag3625
aS'jeder wird denken'
p3626
aS'niemand wird wissen'
p3627
aS'ihr glaubt nicht'
p3628
aS'du wirst nicht'
p3629
ag3629
ag3629
ag3627
ag3628
ag3625
ag3626
ag3624
aS'wird (schlimm|schlecht) (enden|ausgehen)'
p3630
ag3630
ag3630
ag3630
ag3622
ag3622
ag3622
ag3622
ag3621
ag3621
ag3619
ag3619
ag3619
ag3619
aS'niemand je'
p3631
aS'ich bin immer'
p3632
ag3618
ag3618
ag3616
ag3620
ag3620
ag3620
ag3620
ag3620
aS'nicht so sehr'
p3633
aS'egal'
p3634
ag3634
ag3617
ag3617
aS'nichts richtiges'
p3635
ag3635
aS'er war nie ein(e|em|en|er|es)?'
p3636
ag3636
ag3636
aS'jede(r)? glaubt'
p3637
ag3637
ag3623
aS'wird versagen'
p3638
ag3638
aS'du wirst nicht wissen'
p3639
aS'du glaubst nicht'
p3640
aS'keine(r)? wird wissen'
p3641
aS'man wird denken'
p3642
aS'ihr wi(ss|\xc3\x9f)t'
p3643
ag3643
ag3643
ag3643
ag3643
aS'ihr werdet nicht'
p3644
aS'ich werde nicht'
p3645
ag3645
ag3645
ag3645
ag3645
ag3644
ag3642
ag3643
ag3643
ag3643
ag3640
ag3639
aS'ein(e|em|en|er|es)? abscheulich(e|em|en|er|es)?'
p3646
ag3646
ag3646
ag3646
ag3646
ag3646
aS'wird nicht klappen'
p3647
aS'ein(e|em|en|er|es)? unbegehrt(e|em|en|er|es)?'
p3648
ag3648
ag3637
ag3637
ag3636
ag3636
ag3636
ag3636
ag3634
ag3634
aS'jeder einzelne von'
p3649
ag3649
aS'total'
p3650
ag3650
ag3650
ag3650
ag3650
ag3633
ag3633
aS'immer wie'
p3651
ag3651
ag3651
aS'beste'
p3652
ag3652
aS'passiert jedes mal'
p3653
ag3632
aS'jedes mal'
p3654
ag3654
ag3654
aS'es war nie ein(e|em|en|er|es)?'
p3655
ag3655
ag3655
aS'total (schlecht|falsch)'
p3656
ag3656
aS'wenn (ich|es) nur'
p3657
aS'sie waren nie ein(e|em|en|er|es)?'
p3658
ag3658
aS'werden versagen'
p3659
aS'ein(e|em|en|er|es)? widerlich(e|em|en|er|es)?'
p3660
ag3660
ag3660
ag3660
ag3660
ag3660
ag3660
ag3660
aS'du wei(ss|\xc3\x9f)t nicht'
p3661
ag3661
aS'ihr glaubt'
p3662
ag3662
aS'niemand wei(\xc3\x9f|ss)'
p3663
ag3663
ag3663
ag3663
aS'ihr werdet wissen'
p3664
aS'es wird nicht'
p3665
ag3665
aS'du wirst nicht denken'
p3666
ag3666
ag3665
ag3665
ag3664
ag3662
ag3662
ag3663
ag3663
ag3663
aS'keine(r)? wird glauben'
p3667
ag3661
ag3661
ag3646
ag3646
ag3646
ag3646
ag3646
ag3646
ag3646
ag3646
ag3646
ag3646
aS'werde versagen'
p3668
aS'wird schiefgehen'
p3669
ag3657
ag3657
ag3657
ag3657
ag3658
ag3658
ag3658
ag3655
ag3655
ag3656
ag3656
aS'du bist immer'
p3670
ag3652
aS'passiert jedesmal'
p3671
aS'z\xc3\xa4hlt nicht'
p3672
ag3672
aS'er ist immer'
p3673
ag3650
ag3650
ag3650
aS'schlimmste'
p3674
ag3674
ag3635
aS'wir waren nie ein(e|em|en|er|es)?'
p3675
ag3675
aS'alle glauben'
p3676
ag3676
aS'komplett (schlecht|falsch)'
p3677
aS'sie war nie ein(e|em|en|er|es)?'
p3678
ag3678
aS'schlecht (bei|beim|im)'
p3679
ag3679
aS'wirst versagen'
p3680
ag3647
aS'keine(r)? glaubt'
p3681
ag3681
aS'du wei(ss|\xc3\x9f)t'
p3682
ag3682
ag3682
ag3682
ag3682
aS'ihr wi(ss|\xc3\x9f)t nicht'
p3683
ag3683
aS'niemand wird glauben'
p3684
aS'alle werden denken'
p3685
aS'ihr werdet nicht wissen'
p3686
aS'sie werden nicht'
p3687
ag3687
ag3687
ag3686
ag3685
ag3683
ag3683
ag3684
ag3681
ag3682
ag3682
ag3682
ag3682
ag3682
ag3679
ag3679
ag3679
ag3679
ag3679
ag3679
ag3677
ag3677
ag3678
ag3678
ag3678
ag3675
ag3675
ag3676
ag3676
aS'nichts gutes'
p3688
ag3688
ag3674
ag3672
ag3672
ag3670
aS'weil mein(e)?'
p3689
ag3689
ag3689
ag3689
aS'nicht so (gro\xc3\x9fartig|grossartig)'
p3690
ag3690
aS'du hast immer'
p3691
aS'ihr seid immer'
p3692
aS'eines Verlierers'
p3693
aS'Ich f\xc3\xbchle mich verantwortlich'
p3694
aS'Ich bin verantwortlich'
p3695
aS'immer'
p3696
ag3696
ag3696
ag3696
ag3696
ag3696
ag3696
aS'wird nicht passieren'
p3697
aS'werden nie enden'
p3698
aS'kein(e|em|en|er|es)?'
p3699
ag3699
ag3699
ag3699
ag3699
ag3699
ag3699
ag3699
ag3699
ag3699
ag3699
ag3699
ag3699
ag3699
ag3699
ag3699
ag3699
ag3699
ag3699
aS'das schlimmste'
p3700
ag3700
aS'wir denken'
p3701
aS'ich bin ein(e|em|en|er|es)?'
p3702
ag3702
ag3702
ag3702
ag3702
ag3702
ag3702
ag3702
ag3702
ag3702
ag3702
ag3702
aS'er glaubt'
p3703
aS'wir denken nicht'
p3704
aS'wir werden denken'
p3705
aS'er wird wissen'
p3706
aS'sie wird wissen'
p3707
aS'sie denken'
p3708
ag3708
ag3708
ag3708
ag3708
ag3707
ag3705
ag3706
ag3703
ag3704
ag3702
ag3702
ag3702
ag3702
ag3702
ag3702
ag3702
ag3702
ag3702
ag3702
ag3702
ag3701
ag3701
ag3700
ag3700
ag3700
ag3699
ag3699
ag3699
aS'ist unm(\xc3\xb6|oe)glich'
p3709
aS'gib mir die Schuld'
p3710
ag3694
aS'wir sind immer'
p3711
aS'ein(e|em|en|er|es)? hochgradig(e|em|en|er|es)?'
p3712
ag3712
ag3712
ag3712
ag3712
ag3712
ag3690
aS'ein(e|em|en|er|es)? besch\xc3\xa4digt(e|em|en|er|es)?'
p3713
ag3713
ag3713
ag3713
ag3713
aS'ich habe immer'
p3714
ag3714
aS'weil ich'
p3715
ag3715
ag3715
aS'je\\b'
p3716
aS'weil es sich so anf\xc3\xbchlt'
p3717
aS'ein(e|em|en|er|es)? total(e|em|en|er|es)?'
p3718
ag3718
ag3718
ag3718
ag3718
ag3718
ag3718
ag3718
ag3718
ag3718
ag3718
ag3718
ag3718
ag3718
ag3692
ag3691
aS'ein(e|em|en|er|es)? hilflos(e|em|en|er|es)?'
p3719
ag3719
ag3719
ag3719
ag3719
ag3719
ag3719
ag3719
ag3719
aS'akzeptabel (,|\\.)? ?(allerdings|aber|jedoch)'
p3720
ag3720
ag3720
aS'ein(e|em|en|er|es)? riesig(e|em|en|er|es)?'
p3721
ag3721
ag3721
ag3721
ag3721
ag3721
ag3721
ag3721
ag3721
ag3721
ag3721
aS'ich bin eine Last'
p3722
ag3695
aS'verursacht habe'
p3723
aS'sie sind eine Last'
p3724
ag3697
aS'wertlos'
p3725
ag3725
aS'nicht ein(e)? einzig(e|em|en|er|es)?'
p3726
ag3726
ag3726
ag3726
ag3726
ag3726
ag3726
ag3726
ag3726
ag3726
ag3726
ag3726
ag3726
aS'du bist ein(e|em|en|er|es)?'
p3727
ag3727
ag3727
ag3727
ag3727
ag3727
ag3727
ag3727
ag3727
ag3727
aS'sie wei(\xc3\x9f|ss)'
p3728
ag3728
ag3728
ag3728
ag3728
aS'er wird glauben'
p3729
aS'wir werden nicht glauben'
p3730
aS'wir werden glauben'
p3731
aS'keine(r)? wird denken'
p3732
aS'sie glauben nicht'
p3733
aS'sie wird denken'
p3734
ag3734
ag3733
ag3731
ag3729
ag3730
ag3728
ag3728
ag3728
ag3728
ag3727
ag3727
ag3727
ag3727
ag3727
ag3727
ag3727
ag3727
ag3727
ag3727
ag3726
ag3726
ag3726
ag3726
ag3726
ag3726
ag3726
ag3726
ag3725
aS'wird schrecklich sein'
p3735
aS'wird nicht enden'
p3736
ag3723
aS'du bist eine Last'
p3737
aS'wegen mir'
p3738
ag3738
aS'ein(em)? Versager'
p3739
ag3739
aS'er hat immer'
p3740
ag3713
ag3713
ag3713
ag3713
ag3713
ag3713
ag3717
ag3712
ag3712
ag3712
ag3712
ag3712
ag3712
ag3712
ag3712
ag3712
aS'sie sind immer'
p3741
ag3716
ag3716
ag3711
aS'ein(e|em|en|er|es)? schwach(e|em|en|er|es)?'
p3742
ag3742
ag3742
ag3742
ag3742
ag3742
ag3742
ag3742
ag3742
ag3742
ag3742
ag3742
ag3742
ag3742
ag3742
ag3742
ag3742
ag3742
ag3742
ag3742
ag3742
aS'es f\xc3\xbchlt sich so an'
p3743
aS'okay (,|\\.)? ?(allerdings|aber|jedoch)'
p3744
ag3744
aS'ein(e|em|en|er|es)? schlecht(e|em|en|er|es)?'
p3745
ag3745
ag3745
ag3745
ag3745
ag3745
ag3745
ag3745
ag3745
ag3745
ag3745
ag3745
ag3745
ag3745
ag3745
ag3745
ag3745
aS'es hat immer'
p3746
aS'aber es f\xc3\xbchlt sich'
p3747
ag3689
ag3689
ag3689
ag3689
aS'er ist eine Last'
p3748
aS'sie ist eine Last'
p3749
aS'meine Tat'
p3750
ag3750
aS'wird nie enden'
p3751
aS'wird eine Katastrophe sein'
p3752
aS'sollte'
p3753
ag3753
ag3753
ag3753
aS'nie'
p3754
ag3754
ag3754
ag3754
aS'niemand'
p3755
ag3755
aS'er wei(\xc3\x9f|ss) nicht'
p3756
ag3756
aS'er wei(\xc3\x9f|ss)'
p3757
ag3757
ag3757
ag3757
ag3757
aS'wir wissen nicht'
p3758
ag3758
aS'sie ist ein(e|em|en|er|es)?'
p3759
ag3759
ag3759
ag3759
ag3759
ag3759
ag3759
ag3759
ag3759
ag3759
ag3759
aS'sie wird glauben'
p3760
aS'sie wissen'
p3761
ag3761
ag3761
ag3761
ag3761
aS'sie wird nicht wissen'
p3762
ag3762
ag3761
ag3761
ag3760
ag3759
ag3759
ag3759
ag3759
ag3759
ag3759
ag3759
ag3759
ag3759
ag3759
ag3759
ag3757
ag3757
ag3757
ag3757
ag3758
ag3756
ag3756
ag3755
ag3755
ag3755
ag3755
ag3754
ag3754
ag3754
ag3754
ag3753
ag3753
ag3753
ag3753
ag3753
ag3749
ag3750
ag3750
aS'wegen mein(e|em|en|er|es)?'
p3763
ag3763
ag3763
ag3763
ag3763
ag3763
ag3763
ag3763
ag3748
ag3747
ag3744
ag3744
ag3744
aS'ein(e|em|en|er|es)? kaput(e|em|en|er|es)?'
p3764
aS'sie hat immer'
p3765
aS'es ist immer'
p3766
ag3766
ag3766
ag3766
aS'ein(e|em|en|er|es)? absolut(e|em|en|er|es)?'
p3767
ag3767
ag3767
ag3767
ag3767
ag3767
ag3767
ag3767
ag3767
ag3767
ag3767
ag3767
ag3767
ag3767
ag3767
ag3767
ag3767
ag3767
ag3767
ag3767
ag3767
ag3743
ag3740
ag3745
ag3745
ag3745
ag3745
ag3745
ag3745
ag3745
ag3745
ag3745
ag3745
ag3745
ag3745
ag3745
ag3745
ag3745
ag3745
ag3745
ag3745
ag3745
ag3745
ag3745
aS'sch\xc3\xb6n (,|\\.)? ?(allerdings|aber|jedoch)'
p3768
aS'gro(\xc3\x9f|ss)artig (,|\\.)? ?(allerdings|aber|jedoch)'
p3769
ag3742
ag3742
ag3742
ag3742
ag3742
ag3742
ag3742
ag3742
ag3742
ag3742
ag3742
ag3742
ag3742
ag3742
ag3742
aS'sie ist immer'
p3770
aS'ganz Ich'
p3771
ag3771
ag3771
aS'meine Schuld'
p3772
ag3772
ag3738
ag3738
ag3738
aS'die beste'
p3773
ag3773
aS'nichts'
p3774
ag3774
ag3774
ag3774
ag3774
ag3774
ag3774
aS'nimmer'
p3775
ag3775
aS'wir glauben nicht'
p3776
aS'er denkt'
p3777
ag3777
ag3777
aS'er denkt nicht'
p3778
aS'wir werden nicht wissen'
p3779
aS'er ist ein(e|em|en|er|es)?'
p3780
ag3780
ag3780
ag3780
ag3780
ag3780
ag3780
ag3780
ag3780
ag3780
ag3780
ag3780
aS'sie werden nicht glauben'
p3781
aS'sie wird nicht glauben'
p3782
aS'sie glauben'
p3783
ag3783
ag3783
ag3783
ag3783
ag3782
ag3780
ag3780
ag3780
ag3780
ag3780
ag3780
ag3780
ag3780
ag3780
ag3780
ag3781
ag3778
ag3779
ag3776
ag3777
ag3775
ag3775
ag3774
ag3774
ag3774
ag3774
ag3774
ag3774
ag3774
ag3773
ag3773
ag3773
ag3763
ag3763
ag3763
ag3763
ag3763
ag3763
ag3763
ag3763
ag3763
ag3763
ag3724
ag3771
ag3771
ag3769
ag3718
ag3718
ag3718
ag3718
ag3718
ag3718
ag3718
ag3718
ag3718
ag3718
ag3718
ag3718
ag3718
ag3718
ag3766
ag3766
ag3766
ag3765
aS'ein(e|em|en|er|es)? ganz(e|em|en|er|es)?'
p3784
ag3784
ag3784
ag3784
ag3784
ag3784
ag3784
ag3784
ag3784
ag3784
ag3784
ag3784
ag3784
ag3784
ag3784
ag3784
ag3784
ag3784
ag3784
ag3784
ag3784
ag3784
ag3784
ag3784
ag3784
ag3784
ag3784
ag3784
ag3768
ag3768
ag3768
ag3768
ag3784
ag3784
ag3784
ag3784
ag3784
ag3784
ag3784
ag3784
ag3784
ag3784
ag3784
ag3784
ag3784
ag3784
ag3784
ag3784
ag3784
ag3784
ag3784
ag3784
ag3784
ag3784
ag3784
ag3784
ag3784
ag3784
ag3784
ag3784
ag3784
ag3784
ag3784
ag3784
ag3784
ag3784
ag3746
aS'da ich f\xc3\xbchle ,'
p3785
aS'nur Ich'
p3786
ag3786
ag3786
aS'sie haben immer'
p3787
aS'weder'
p3788
ag3788
ag3788
ag3788
aS'ein(em)? Verlierer'
p3789
aS'das ist eine Last'
p3790
aS'meine Verantwortung'
p3791
ag3791
aS'der beste'
p3792
aS'mu(\xc3\x9f|ss)'
p3793
ag3793
ag3793
ag3793
ag3793
ag3793
ag3793
ag3793
aS'du glaubst'
p3794
ag3794
aS'er wird nicht wissen'
p3795
aS'sie sind ein(e|em|en|er|es)?'
p3796
ag3796
ag3796
ag3796
ag3796
ag3796
ag3796
ag3796
ag3796
ag3796
aS'sie werden wissen'
p3797
ag3797
aS'sie werden nicht wissen'
p3798
aS'sie denkt nicht'
p3799
ag3798
ag3799
ag3796
ag3796
ag3796
ag3796
ag3796
ag3796
ag3796
ag3796
ag3796
ag3796
ag3796
ag3795
ag3797
ag3794
ag3792
ag3793
ag3793
ag3793
ag3793
ag3793
ag3791
aS'nur'
p3800
ag3800
ag3800
ag3800
ag3790
ag3789
ag3788
ag3788
ag3788
ag3785
aS'wir haben immer'
p3801
ag3767
ag3767
ag3767
ag3767
ag3767
ag3767
ag3767
ag3767
ag3767
ag3767
ag3767
ag3767
ag3767
ag3767
ag3767
ag3767
ag3767
ag3767
aS'gut (,|\\.)? ?(allerdings|aber|jedoch)'
p3802
ag3802
ag3802
ag3802
aS'die schlimmste'
p3803
ag3803
aS'weil ich f\xc3\xbchle ,'
p3804
ag3772
ag3772
aS'es ist eine Last'
p3805
aS'soll'
p3806
ag3806
ag3806
ag3806
ag3806
ag3806
aS'das beste'
p3807
ag3807
ag3807
aS'all(e|em|en|er|es)?'
p3808
ag3808
ag3808
ag3808
ag3808
ag3808
ag3808
ag3808
ag3808
ag3808
ag3808
ag3808
ag3808
ag3808
ag3808
ag3808
ag3808
ag3808
ag3808
ag3808
ag3808
ag3808
ag3808
ag3808
ag3808
ag3808
ag3808
ag3808
ag3808
ag3808
ag3808
ag3808
ag3808
ag3808
aS'nirgendwo'
p3809
ag3809
aS'er glaubt nicht'
p3810
aS'sie glaubt nicht'
p3811
aS'sie werden denken'
p3812
aS'er wird nicht glauben'
p3813
ag3812
ag3813
ag3811
aS'sie werden nicht denken'
p3814
ag3810
ag3809
ag3800
ag3800
ag3800
ag3800
aS'ich trage die Schuld'
p3815
ag3806
ag3806
ag3806
ag3806
ag3806
ag3807
ag3807
ag3807
aS'eines Versagers'
p3816
ag3805
ag3786
ag3786
ag3786
ag3804
ag3803
ag3803
ag3802
ag3802
ag3802
ag3802
ag3802
aS'ihr habt immer'
p3817
aS'entweder'
p3818
ag3818
aS'alles mein'
p3819
ag3819
aS'nicht so gut'
p3820
ag3710
aS'ausgezeichnet'
p3821
ag3821
aS'm\xc3\xbc(\xc3\x9f|ss)te'
p3822
ag3822
ag3822
aS'ich bin schuld'
p3823
ag3823
aS'jed(e|em|en|er|es)?'
p3824
aS'der schlimmste'
p3825
ag3825
aS'wir wissen'
p3826
ag3826
ag3826
ag3826
ag3826
aS'sie denkt'
p3827
aS'sie werden glauben'
p3828
aS'er wird denken'
p3829
ag3829
ag3828
ag3826
ag3826
ag3826
ag3826
ag3827
ag3825
ag3825
ag3823
ag3823
aS'\xc3\xbcberall'
p3830
ag3830
ag3830
ag3830
ag3821
ag3821
ag3821
ag3822
ag3822
ag3822
ag3822
ag3822
ag3822
ag3822
ag3739
aS'ein(e|em|en|er|es)? komplett(e|em|en|er|es)?'
p3831
ag3831
ag3831
ag3831
ag3831
ag3831
ag3831
ag3831
ag3831
ag3831
ag3831
ag3831
ag3831
ag3820
aS'jemals'
p3832
ag3832
ag3715
ag3715
ag3715
ag3787
ag3818
ag3818
ag3818
ag3819
ag3819
aS'aber ich f\xc3\xbchle'
p3833
aS'schwarz und wei(ss|\xc3\x9f)'
p3834
ag3834
ag3834
ag3834
ag3817
ag3714
ag3719
ag3719
ag3719
ag3719
ag3719
ag3719
ag3719
ag3719
ag3721
ag3721
ag3721
ag3721
ag3721
ag3721
ag3721
ag3721
ag3721
ag3721
ag3721
ag3721
ag3721
ag3721
ag3721
ag3824
ag3824
ag3824
ag3824
ag3824
ag3824
ag3824
ag3824
ag3824
ag3824
ag3824
ag3824
ag3824
ag3824
ag3824
ag3824
ag3824
ag3815
aS'mue(\xc3\x9f|ss)te'
p3835
ag3835
aS'perfekt'
p3836
ag3836
aS'werden nicht enden'
p3837
aS'sie denken nicht'
p3838
aS'sie glaubt'
p3839
aS'sie wei(\xc3\x9f|ss) nicht'
p3840
ag3840
aS'wir glauben'
p3841
ag3841
ag3841
aS'wir werden wissen'
p3842
aS'sie wissen nicht'
p3843
ag3843
ag3843
ag3843
ag3842
ag3840
ag3840
ag3841
ag3841
ag3838
ag3839
ag3835
ag3836
ag3808
ag3808
ag3808
ag3808
ag3808
ag3808
ag3808
ag3808
ag3808
ag3808
ag3808
ag3808
ag3808
ag3808
ag3808
ag3808
ag3808
ag3808
ag3808
ag3808
ag3808
ag3808
ag3808
ag3808
ag3808
ag3808
ag3808
ag3808
ag3808
ag3808
ag3808
ag3831
ag3831
ag3831
ag3831
ag3831
ag3831
ag3831
ag3831
ag3831
ag3831
aS'ein(e|em|en|er|es)? hoffnungslos(e|em|en|er|es)?'
p3844
ag3844
ag3844
ag3844
ag3844
ag3844
ag3741
ag3834
ag3834
ag3834
ag3834
ag3801
ag3833
aS'nicht wichtig'
p3845
ag3845
aS'die eine Sache'
p3846
ag3846
ag3654
ag3654
ag3654
ag3654
aS'du warst nie ein(e|em|en|er|es)?'
p3847
ag3847
aS'es ist ein(e|em|en|er|es)?'
p3848
ag3848
ag3848
ag3848
ag3848
ag3848
ag3848
ag3848
ag3848
ag3848
ag3848
ag3848
aS'ein(e|em|en|er|es)? giftig(e|em|en|er|es)?'
p3849
ag3849
ag3849
ag3849
ag3849
ag3849
ag3849
ag3849
ag3660
ag3660
ag3660
ag3660
ag3660
ag3660
aS'niemand denkt'
p3850
aS'du wirst wissen'
p3851
aS'jede(r)? wei(\xc3\x9f|ss)'
p3852
ag3852
ag3852
ag3852
ag3852
ag3852
aS'man wird wissen'
p3853
aS'ihr werdet denken'
p3854
aS'das wird nicht'
p3855
ag3855
ag3853
ag3854
ag3851
ag3852
ag3852
ag3852
ag3852
ag3852
ag3850
aS'ein(e|em|en|er|es)? schrecklich(e|em|en|er|es)?'
p3856
ag3856
ag3856
ag3856
ag3856
ag3856
ag3856
ag3856
ag3856
ag3856
ag3856
ag3856
ag3856
aS'ein(e|em|en|er|es)? inkompetent(e|em|en|er|es)?'
p3857
ag3857
ag3857
ag3848
ag3848
ag3848
ag3848
ag3848
ag3848
ag3848
ag3848
ag3848
ag3848
ag3848
ag3848
ag3848
ag3848
ag3848
ag3848
ag3848
ag3848
ag3847
ag3847
ag3847
aS'die einzige Sache'
p3858
aS'alle von ihnen'
p3859
ag3859
ag3688
ag3688
ag3688
ag3845
ag3673
ag3846
aS'jedesmal'
p3860
ag3860
ag3860
aS'nur d(er|ie|as) (schlechte||schlimmste)'
p3861
ag3861
ag3861
ag3861
ag3861
ag3861
ag3861
ag3861
ag3861
ag3861
aS'das ist ein(e|em|en|er|es)?'
p3862
ag3862
ag3862
ag3862
ag3862
ag3862
ag3862
ag3862
ag3862
ag3862
aS'ein(e|em|en|er|es)? horrend(e|em|en|er|es)?'
p3863
ag3863
ag3863
ag3863
ag3863
ag3844
ag3844
ag3844
ag3844
ag3844
ag3844
ag3844
aS'du denkst nicht'
p3864
aS'du wirst denken'
p3865
aS'jede(r)? wird wissen'
p3866
aS'man wei(\xc3\x9f|ss)'
p3867
ag3867
ag3867
ag3867
aS'ihr werdet glauben'
p3868
ag3867
ag3867
ag3867
ag3867
ag3868
ag3865
ag3864
ag3857
ag3857
ag3857
ag3856
ag3856
ag3856
ag3856
ag3856
ag3856
ag3856
ag3856
ag3856
ag3856
ag3856
ag3856
ag3856
ag3862
ag3862
ag3862
ag3862
ag3862
ag3862
ag3862
ag3862
ag3862
ag3862
ag3862
ag3862
ag3862
ag3862
ag3861
ag3861
ag3861
ag3861
ag3861
ag3861
ag3861
ag3859
ag3859
ag3770
aS'ich sehe nur'
p3869
aS'er wird nicht'
p3870
ag3870
aS'passiert immer'
p3871
ag3649
ag3649
aS'ihr seid ein(e|em|en|er|es)?'
p3872
ag3872
ag3872
ag3872
ag3872
ag3872
ag3872
aS'alle wissen'
p3873
ag3873
aS'ein(e|em|en|er|es)? wertlos(e|em|en|er|es)?'
p3874
ag3874
ag3874
ag3874
ag3874
ag3874
aS'ein(e|em|en|er|es)? h(\xc3\xa4|ae)\xc3\x9flich(e|em|en|er|es)?'
p3875
ag3875
ag3875
ag3875
ag3875
ag3875
ag3875
ag3875
ag3875
ag3875
ag3875
ag3709
ag3709
ag3709
ag3709
aS'alle werden wissen'
p3876
aS'du wirst nicht glauben'
p3877
aS'ihr denkt nicht'
p3878
aS'jede(r)? denkt'
p3879
ag3879
aS'ihr denkt'
p3880
ag3880
ag3880
ag3878
ag3879
ag3879
ag3876
ag3877
ag3849
ag3849
ag3849
ag3849
ag3849
ag3849
ag3849
ag3873
ag3873
ag3872
ag3872
ag3872
ag3872
ag3872
ag3872
ag3872
ag3872
ag3631
aS'kann nur denken'
p3881
ag3869
ag3870
ag3870
aS'alles , was ich sehe(n)?'
p3882
ag3882
ag3871
aS'sie wird nicht'
p3883
aS'aber'
p3884
ag3884
ag3884
ag3858
aS'wir sind ein(e|em|en|er|es)?'
p3885
ag3885
ag3885
ag3885
ag3885
ag3885
ag3885
ag3885
ag3885
ag3885
ag3875
ag3875
ag3875
ag3875
ag3875
ag3875
ag3875
ag3875
ag3875
ag3875
ag3874
ag3874
ag3874
ag3874
ag3874
aS'alle denken'
p3886
aS'du wirst glauben'
p3887
aS'ihr werdet nicht glauben'
p3888
aS'jeder wird glauben'
p3889
aS'niemand wird denken'
p3890
aS'wir werden nicht'
p3891
ag3891
ag3890
ag3888
ag3889
ag3886
ag3886
ag3887
ag3863
ag3863
ag3863
ag3722
ag3885
ag3885
ag3885
ag3885
ag3885
ag3885
ag3885
ag3885
ag3885
ag3885
ag3885
ag3883
ag3884
ag3884
ag3884
ag3884
ag3884
ag3884
ag3882
ag3882
ag3651
ag3651
aFnan
aFnan
aFnan
aFnan
aFnan
aFnan
aFnan
aFnan
aFnan
aFnan
aFnan
aFnan
aFnan
aFnan
aFnan
aFnan
aFnan
aFnan
aFnan
aFnan
aFnan
aFnan
aFnan
aFnan
aFnan
aFnan
aFnan
aFnan
aFnan
aFnan
aFnan
aFnan
aFnan
aFnan
aFnan
aFnan
aFnan
aFnan
aFnan
aFnan
aFnan
aFnan
aFnan
aFnan
aFnan
aFnan
aFnan
aS'hOrrible'
p3892
aS'horrible'
p3893
aS'Indefenso'
p3894
aS'INDEFENSO'
p3895
aS'ellos no creen'
p3896
aS'eso es una'
p3897
aS'Va a ser horrible'
p3898
aS'ella Nunca'
p3899
aS'ella nunca'
p3900
aS'Ellas son unas'
p3901
aS'Ellos siempre'
p3902
aS't\xc3\xba no pensar\xc3\xa1s'
p3903
aS'usted no creer\xc3\xa1'
p3904
aS't\xc3\xba crees'
p3905
aS'Bueno pero'
p3906
aS'Bueno Pero'
p3907
aS'usted creer\xc3\xa1'
p3908
aS'Usted va a pensar'
p3909
aS'\xc3\xa9l no cree'
p3910
aS'Una completa'
p3911
aS'UNA COMPLETA'
p3912
aS'No es importante'
p3913
aS'\xc3\xa9l va a pensar'
p3914
aS'chupa'
p3915
aS'ella no sabe'
p3916
aS'ella pensar\xc3\xa1'
p3917
aS'Ella va a pensar'
p3918
aS'Ella no cree'
p3919
aS'CHUPA'
p3920
aS'Chupa'
p3921
aS'no es importante'
p3922
aS'no es Importante'
p3923
aS'\xc3\x89l no cree'
p3924
aS'una completa'
p3925
aS'una COmpleta'
p3926
aS'una Completa'
p3927
aS't\xc3\xba pensar\xc3\xa1s'
p3928
aS'T\xc3\xba no Sabes'
p3929
aS'T\xc3\xba no sabes'
p3930
aS'T\xc3\x9a NO SABES'
p3931
aS'USTED cree'
p3932
aS'Usted cree'
p3933
aS'Usted Cree'
p3934
aS'USTED CREE'
p3935
aS'bueno pero'
p3936
aS'bueno Pero'
p3937
aS'aceptable pero'
p3938
aS'nosotros no sabremos'
p3939
aS'Ellas siempre'
p3940
aS'ellas son unas'
p3941
aS'Ella nunca'
p3942
aS'Eso es una'
p3943
aS'va a ser horrible'
p3944
aS'indefenso'
p3945
aS'Ellas no creen'
p3946
aS'HoRRIBLE'
p3947
aS'HORRIBLE'
p3948
aS'Horrible'
p3949
aS'Ellos no creen'
p3950
aS'indefensa'
p3951
aS'FEO'
p3952
aS'FeO'
p3953
aS'FEo'
p3954
aS'Feo'
p3955
aS'Fracasar\xc3\xa1'
p3956
aS'ser\xc3\xa1 horrible'
p3957
aS'fallar\xc3\xa1'
p3958
aS'Ellos creen'
p3959
aS'Ellos son unos'
p3960
aS'Ellas nunca'
p3961
aS'Usted no pensar\xc3\xa1'
p3962
aS'ella Siempre'
p3963
aS'ella siempre'
p3964
aS'no tan'
p3965
aS'no TAN'
p3966
aS'no Tan'
p3967
aS't\xc3\xba sabes'
p3968
aS't\xc3\xba Sabes'
p3969
aS'Bien pero'
p3970
aS'Bien Pero'
p3971
aS'eso no fue'
p3972
aS't\xc3\xba vas a pensar'
p3973
aS'T\xc3\xba creer\xc3\xa1s'
p3974
aS'Sabra'
p3975
aS'SABRA'
p3976
aS'no importante'
p3977
aS'peor'
p3978
aS'peOr'
p3979
aS'\xc3\xa9l piensa'
p3980
aS'\xc3\x89l piensa'
p3981
aS'Ella pensar\xc3\xa1'
p3982
aS'Ella no sabe'
p3983
aS'Ella no piensa'
p3984
aS'\xc3\x89l no sabr\xc3\xa1'
p3985
aS'PEor'
p3986
aS'Peor'
p3987
aS'PEOR'
p3988
aS'PeoR'
p3989
aS'PEoR'
p3990
aS'PeOr'
p3991
aS'sabra'
p3992
aS'No importante'
p3993
aS'No Importante'
p3994
aS'NO IMPORTANTE'
p3995
aS'T\xc3\xba pensar\xc3\xa1s'
p3996
aS'Eso no fue'
p3997
aS'Nosotros no sabremos'
p3998
aS'bien Pero'
p3999
aS'bien pero'
p4000
aS'No TAN'
p4001
aS'NO TAN'
p4002
aS'NO tan'
p4003
aS'No Tan'
p4004
aS'No tan'
p4005
aS'usted cree'
p4006
aS'usted Cree'
p4007
aS'ellas Siempre'
p4008
aS'ellas siempre'
p4009
aS'ellas nunca'
p4010
aS'ellos son unos'
p4011
aS'Fallar\xc3\xa1'
p4012
aS'Ser\xc3\xa1 horrible'
p4013
aS'feo'
p4014
aS'feO'
p4015
aS'ellos van a creer'
p4016
aS'fracasar\xc3\xa1'
p4017
aS'ellas piensan'
p4018
aS'Indefensa'
p4019
aS'INDEFENSA'
p4020
aS'Nunca va a terminar'
p4021
aS'Ellos piensan'
p4022
aS'Va a fallar'
p4023
aS'INDESEABLE'
p4024
aS'Indeseable'
p4025
aS'ellas no creen'
p4026
aS'ellos no piensan'
p4027
aS'esto es Un'
p4028
aS'esto es un'
p4029
aS'ella es una'
p4030
aS'ella Es una'
p4031
aS'ella es Una'
p4032
aS'Yo siempre estoy'
p4033
aS'usted siempre est\xc3\xa1'
p4034
aS'Esto o'
p4035
aS'bueno sin embargo'
p4036
aS'usted sabr\xc3\xa1'
p4037
aS'T\xc3\xba vas a saber'
p4038
aS'ella piensa'
p4039
aS'NO IMPORTA'
p4040
aS'NO importa'
p4041
aS'No importa'
p4042
aS'No IMPoRTA'
p4043
aS'No IMPORTA'
p4044
aS'No Importa'
p4045
aS'\xc3\x89l creer\xc3\xa1'
p4046
aS'\xc3\xa9l creer\xc3\xa1'
p4047
aS'\xc3\xa9l no sabe'
p4048
aS'Un completo'
p4049
aS'Un Completo'
p4050
aS'UN COMPLETO'
p4051
aS'ella va a pensar'
p4052
aS'Ella creer\xc3\xa1'
p4053
aS'ella sabr\xc3\xa1'
p4054
aS'\xc3\x89l no sabe'
p4055
aS'un COmpleto'
p4056
aS'un completo'
p4057
aS'un Completo'
p4058
aS'no importa'
p4059
aS'no imPorta'
p4060
aS'no impOrta'
p4061
aS'no Importa'
p4062
aS'ella no cree'
p4063
aS'Usted creer\xc3\xa1'
p4064
aS'T\xc3\x9a CREES'
p4065
aS'T\xc3\xba Crees'
p4066
aS'T\xc3\xba crees'
p4067
aS'esto o'
p4068
aS'esto O'
p4069
aS'ellos Siempre'
p4070
aS'ellos siempre'
p4071
aS't\xc3\xba siempre est\xc3\xa1s'
p4072
aS'Ella es una'
p4073
aS'ellas no piensan'
p4074
aS'Esto es Un'
p4075
aS'Esto es un'
p4076
aS'indeSeable'
p4077
aS'indeseable'
p4078
aS'ellos no saben'
p4079
aS'va a fallar'
p4080
aS'Ellas piensan'
p4081
aS'nunca va a terminar'
p4082
aS'Va a fracasar'
p4083
aS'Fea'
p4084
aS'FEA'
p4085
aS'FeA'
p4086
aS'FEa'
p4087
aS'Ellas no saben'
p4088
aS'no amable'
p4089
aS'T\xc3\xba no pensar\xc3\xa1s'
p4090
aS'Usted siempre est\xc3\xa1'
p4091
aS'yo siempre estoy'
p4092
aS't\xc3\xba creer\xc3\xa1s'
p4093
aS'Buena pero'
p4094
aS'bien Sin embargo'
p4095
aS'bien sin embargo'
p4096
aS't\xc3\xba vas a saber'
p4097
aS'Usted sabr\xc3\xa1'
p4098
aS'Da\xc3\xb1ado'
p4099
aS'DA\xc3\x91ADo'
p4100
aS'DA\xc3\x91ADO'
p4101
aS'mayor'
p4102
aS'maYOr'
p4103
aS'maYor'
p4104
aS'mayOr'
p4105
aS'\xc3\x89l no piensa'
p4106
aS'\xc3\x89l va a saber'
p4107
aS'NO CUENTA'
p4108
aS'No Cuenta'
p4109
aS'No CUENTA'
p4110
aS'No cuenta'
p4111
aS'NO cuenta'
p4112
aS'ella no piensa'
p4113
aS'Ella va a saber'
p4114
aS'Ella sabr\xc3\xa1'
p4115
aS'\xc3\xa9l va a saber'
p4116
aS'no Cuenta'
p4117
aS'no cuenta'
p4118
aS'MAYoR'
p4119
aS'MAyoR'
p4120
aS'MayOr'
p4121
aS'MayoR'
p4122
aS'MAyor'
p4123
aS'MAyOR'
p4124
aS'Mayor'
p4125
aS'MaYor'
p4126
aS'MaYOR'
p4127
aS'MAYOR'
p4128
aS'MAYor'
p4129
aS'\xc3\xa9l no piensa'
p4130
aS'da\xc3\xb1ado'
p4131
aS't\xc3\xba sabr\xc3\xa1s'
p4132
aS'buena pero'
p4133
aS'buena Pero'
p4134
aS'usted no pensar\xc3\xa1'
p4135
aS'T\xc3\xba siempre eres'
p4136
aS'Ellos no saben'
p4137
aS'No amable'
p4138
aS'fEa'
p4139
aS'feA'
p4140
aS'fea'
p4141
aS'Ellas no piensan'
p4142
aS'nunca terminara'
p4143
aS'va a fracasar'
p4144
aS'roTo'
p4145
aS'rotO'
p4146
aS'roto'
p4147
aS'rOtO'
p4148
aS'rOto'
p4149
aS'rOTO'
p4150
aS'Ni La'
p4151
aS'Ni la'
p4152
aS'NI LA'
p4153
aS'NI la'
p4154
aS'Ni LA'
p4155
aS'NI La'
p4156
aS'ellas pensar\xc3\xa1n'
p4157
aS'Sin esperanza'
p4158
aS'Sin Esperanza'
p4159
aS'todo el mundO'
p4160
aS'todo El Mundo'
p4161
aS'todo El mundo'
p4162
aS'todo el Mundo'
p4163
aS'todo el MUNDO'
p4164
aS'todo eL mundo'
p4165
aS'todo el mUndo'
p4166
aS'todo EL MUNDO'
p4167
aS'todo el mundo'
p4168
aS'Ellos no sabr\xc3\xa1n'
p4169
aS'todas partes'
p4170
aS'todas parteS'
p4171
aS'todas Partes'
p4172
aS'todaS partes'
p4173
aS'nosotras no creemos'
p4174
aS'nosotros Creemos'
p4175
aS'nosotros creemos'
p4176
aS'el peor'
p4177
aS'el PEOR'
p4178
aS'el Peor'
p4179
aS'la mejOr'
p4180
aS'la Mejor'
p4181
aS'la MEJOR'
p4182
aS'la mejor'
p4183
aS'la meJor'
p4184
aS'COMPLETAMENTE'
p4185
aS'Completamente'
p4186
aS'COmpletamente'
p4187
aS'todos elloS'
p4188
aS'todos Ellos'
p4189
aS'todos ellos'
p4190
aS'todoS elloS'
p4191
aS'Va a ser terrible'
p4192
aS'todo mi culpa'
p4193
aS'Todav\xc3\xada se siente'
p4194
aS'Porque se siente'
p4195
aS'nosotros no vamos a saber'
p4196
aS'Yo soy Un'
p4197
aS'Yo soy un'
p4198
aS'Yo NUNCA'
p4199
aS'YO nunca'
p4200
aS'YO NUNCA'
p4201
aS'Yo Nunca'
p4202
aS'Yo nunca'
p4203
aS'porque MI'
p4204
aS'porque mi'
p4205
aS'porque Mi'
p4206
aS'mala m\xc3\xada'
p4207
aS'Todo lo que veo'
p4208
aS'NADIE sabe'
p4209
aS'Nadie Sabe'
p4210
aS'Nadie sabe'
p4211
aS'NADIE SABE'
p4212
aS'nadie pensar\xc3\xa1'
p4213
aS'todo lo que puedo ver'
p4214
aS'todas creen'
p4215
aS'todas saben'
p4216
aS'Todas saben'
p4217
aS'Todas creen'
p4218
aS'Nadie pensar\xc3\xa1'
p4219
aS'Todo lo que puedo ver'
p4220
aS'todo lo que veo'
p4221
aS'nadie sabe'
p4222
aS'nadie Sabe'
p4223
aS'Por Mi'
p4224
aS'Por MI'
p4225
aS'PoR MI'
p4226
aS'Por mi'
p4227
aS'yo NUNCA'
p4228
aS'yo nunca'
p4229
aS'yo Nunca'
p4230
aS'yo soy un'
p4231
aS'yo soy Un'
p4232
aS'porque se siente'
p4233
aS'nosotros vamos a pensar'
p4234
aS'todav\xc3\xada se siente'
p4235
aS'Toda mi culpa'
p4236
aS'va a ser terrible'
p4237
aS'Todo el Tiempo'
p4238
aS'Todo el tiempo'
p4239
aS'sucede siempre'
p4240
aS'LA MEJor'
p4241
aS'La MEJOR'
p4242
aS'La mejor'
p4243
aS'LA MEjor'
p4244
aS'LA MEJoR'
p4245
aS'La Mejor'
p4246
aS'LA mejor'
p4247
aS'LA MEJOR'
p4248
aS'El peor'
p4249
aS'nosotras creemos'
p4250
aS'nosotros no sabemos'
p4251
aS'Todas partes'
p4252
aS'Todas Partes'
p4253
aS'ToDAs PARTEs'
p4254
aS'TODAS PARTES'
p4255
aS'ToDAS PARTES'
p4256
aS'TODAS PARTEs'
p4257
aS'TODAS partes'
p4258
aS'Todo EL MUNDo'
p4259
aS'Todo el mundo'
p4260
aS'Todo el Mundo'
p4261
aS'ToDo EL MUNDo'
p4262
aS'ToDo EL MUNDO'
p4263
aS'Todo El Mundo'
p4264
aS'sin esperanza'
p4265
aS'sin Esperanza'
p4266
aS'RoTo'
p4267
aS'Roto'
p4268
aS'ROtO'
p4269
aS'ROTO'
p4270
aS'ellos pensar\xc3\xa1n'
p4271
aS'ni la'
p4272
aS'ni La'
p4273
aS'ni LA'
p4274
aS'sin valor'
p4275
aS'sin Valor'
p4276
aS'ellos van a saber'
p4277
aS'Desesperanzada'
p4278
aS'ToTALMENTE'
p4279
aS'Totalmente'
p4280
aS'TOTALMENTE'
p4281
aS's\xc3\x93lO'
p4282
aS's\xc3\x93Lo'
p4283
aS's\xc3\xb3lo'
p4284
aS's\xc3\xb3lO'
p4285
aS's\xc3\x93LO'
p4286
aS's\xc3\x93lo'
p4287
aS's\xc3\xb3Lo'
p4288
aS's\xc3\xb3LO'
p4289
aS'Toda la gente'
p4290
aS'Toda la Gente'
p4291
aS'Nosotros creemos'
p4292
aS'Nosotros Creemos'
p4293
aS'Nosotras no creemos'
p4294
aS'El mejor'
p4295
aS'En ninguna parte'
p4296
aS'\xc3\x89L SIEMPRE'
p4297
aS'\xc3\xa9l Siempre'
p4298
aS'\xc3\x89l siempre'
p4299
aS'\xc3\xa9l siempre'
p4300
aS'Pasa siempre'
p4301
aS'Todos y cada uno de'
p4302
aS'yo soy responsable'
p4303
aS'toda Mi'
p4304
aS'toda mi'
p4305
aS'pero yo siento'
p4306
aS'porque yo siento'
p4307
aS'UN mal'
p4308
aS'Un Mal'
p4309
aS'Un mal'
p4310
aS'UN MAL'
p4311
aS'yo soy una'
p4312
aS'Mi responsabilidad'
p4313
aS'\xc3\xa9l cree'
p4314
aS'\xc3\xa9l Cree'
p4315
aS'\xc3\x89l cree'
p4316
aS'nadie piensa'
p4317
aS'nadie Piensa'
p4318
aS'Yo s\xc3\xb3lo veo'
p4319
aS'si eso solo'
p4320
aS'todo el mundo sabe'
p4321
aS'todo el Mundo sabe'
p4322
aS'todo el mundo Sabe'
p4323
aS'Todo el mundo cree'
p4324
aS'todo el mundo cree'
p4325
aS'Todo el Mundo sabe'
p4326
aS'Todo el mundo Sabe'
p4327
aS'Todo el mundo sabe'
p4328
aS'Si eso solo'
p4329
aS'Nadie piensa'
p4330
aS'yo s\xc3\xb3lo veo'
p4331
aS'por Mi'
p4332
aS'por mi'
p4333
aS'por MI'
p4334
aS'por mI'
p4335
aS'Yo soy una'
p4336
aS'un Mal'
p4337
aS'un mal'
p4338
aS'un maL'
p4339
aS'un MAL'
p4340
aS'Nosotros creeremos'
p4341
aS'Porque yo siento'
p4342
aS'Pero yo siento'
p4343
aS'toda mi culpa'
p4344
aS'todos y cada uno de'
p4345
aS'todos y Cada uno de'
p4346
aS'todos y cada Uno de'
p4347
aS'Sucede siempre'
p4348
aS'todo El tiempo'
p4349
aS'todo el tiempo'
p4350
aS'todo el Tiempo'
p4351
aS'todo el tiempO'
p4352
aS'todo el tiemPo'
p4353
aS'en ninguna Parte'
p4354
aS'en ninguna parte'
p4355
aS'eL mejor'
p4356
aS'el meJor'
p4357
aS'el mejor'
p4358
aS'el Mejor'
p4359
aS'el MEJOR'
p4360
aS'el mejOr'
p4361
aS'nosotros no creemos'
p4362
aS'toda la gente'
p4363
aS'toda la Gente'
p4364
aS'totalmente'
p4365
aS'tOtalmente'
p4366
aS'S\xc3\xb3Lo'
p4367
aS'S\xc3\xb3LO'
p4368
aS'S\xc3\xb3lo'
p4369
aS'S\xc3\xb3lO'
p4370
aS'S\xc3\x93LO'
p4371
aS'S\xc3\x93Lo'
p4372
aS'S\xc3\x93lo'
p4373
aS'S\xc3\x93lO'
p4374
aS'desesperanzada'
p4375
aS'Sin valor'
p4376
aS'Sin Valor'
p4377
aS'ellos sabran'
p4378
aS'T\xc3\x9a NUNCA'
p4379
aS'T\xc3\xba nunca'
p4380
aS'no pasar\xc3\xa1'
p4381
ag2114
aS'TotAL'
p4382
ag2112
aS'ToTaL'
p4383
aS'TotAl'
p4384
ag2113
aS'TOTal'
p4385
aS'TOTaL'
p4386
aS'TOtAL'
p4387
aS'TOTAl'
p4388
aS'ToTal'
p4389
ag2111
aS'ToTAl'
p4390
ag2115
aS'ROTA'
p4391
aS'RoTA'
p4392
aS'Rota'
p4393
aS'ROta'
p4394
aS'RoTa'
p4395
aS'Ellos pensar\xc3\xa1n'
p4396
aS'CAdA'
p4397
aS'Cada'
p4398
aS'CAda'
p4399
aS'CaDa'
p4400
aS'CADA'
p4401
aS'CaDA'
p4402
aS'Nadie'
p4403
aS'NADIE'
p4404
aS'NAdie'
p4405
aS'Nosotras creemos'
p4406
aS'nosotros pensamos'
p4407
aS'todas Ellas'
p4408
aS'todas ellas'
p4409
aS'todas ellaS'
p4410
aS'siempre como'
p4411
aS'siempre Como'
p4412
aS'yo me siento responsable'
p4413
aS'Todas Mis'
p4414
aS'TODAS mis'
p4415
aS'Todas mis'
p4416
aS'TODAS MIS'
p4417
aS'nosotras sabremos'
p4418
aS'yo no voy a'
p4419
aS'yo no Voy a'
p4420
aS'ya que se siente'
p4421
aS'tienes que'
p4422
aS'tienes Que'
p4423
aS'porque yO'
p4424
aS'porque yo'
p4425
aS'porque Yo'
p4426
aS'porque YO'
p4427
aS'una carga'
p4428
aS'una Carga'
p4429
aS's\xc3\xb3lo lo peor'
p4430
aS'Nadie va a pensar'
p4431
aS's\xc3\xb3lo puedo pensar'
p4432
aS'la \xc3\xbanica cosa'
p4433
aS'Nadie creer\xc3\xa1'
p4434
aS'Todas piensan'
p4435
aS'Todos creen'
p4436
aS'todos creen'
p4437
aS'todas piensan'
p4438
aS'La \xc3\xbanica cosa'
p4439
aS'nadie creer\xc3\xa1'
p4440
aS'nadie va a pensar'
p4441
aS'S\xc3\xb3lo puedo pensar'
p4442
aS'Una Carga'
p4443
aS'Una carga'
p4444
aS'UNA CARGA'
p4445
aS'Porque mi'
p4446
aS'Porque Mi'
p4447
aS'tiene QUE'
p4448
aS'tiene Que'
p4449
aS'tiene que'
p4450
aS'tiene qUe'
p4451
aS'Ya que se siente'
p4452
aS'YO NO VOY A'
p4453
aS'YO no voy a'
p4454
aS'Yo no voy a'
p4455
aS'Yo no Voy a'
p4456
aS'nosotros sabremos'
p4457
aS'Yo caus\xc3\xa9'
p4458
aS'Siempre sucede'
p4459
aS'TODOS ellos'
p4460
aS'TOdos ellos'
p4461
aS'Todos ellos'
p4462
aS'Todos elloS'
p4463
aS'Todos Ellos'
p4464
aS'TODOS ELLOS'
p4465
aS'Ella siempre'
p4466
aS'Nosotras pensamos'
p4467
aS'nosotros sabemos'
p4468
aS'nosotros Sabemos'
p4469
aS'nadie'
p4470
aS'cada'
p4471
aS'cADA'
p4472
aS'caDa'
p4473
aS'cAdA'
p4474
aS'cadA'
p4475
aS'caDA'
p4476
aS'rOta'
p4477
aS'rota'
p4478
aS'roTA'
p4479
aS'tOtAL'
p4480
ag2199
ag2200
aS'tOTAL'
p4481
ag2198
aS'totaL'
p4482
aS'totAL'
p4483
aS'totAl'
p4484
aS't\xc3\xba nunca'
p4485
aS'NO PASAR\xc3\x81'
p4486
aS'No pasar\xc3\xa1'
p4487
aS'No va a pasar'
p4488
aS'Solamente'
p4489
aS'SoLAMENTE'
p4490
aS'SOLAMENTE'
p4491
aS'SOlamente'
p4492
aS'ellos no pensar\xc3\xa1n'
p4493
aS'ellos van a pensar'
p4494
aS'Nosotros nunca'
p4495
aS'Terrible'
p4496
aS'TERRIBLE'
p4497
aS'NINGuNo'
p4498
aS'NINGUNo'
p4499
aS'NingunO'
p4500
aS'NINGUNO'
p4501
aS'Ninguno'
p4502
aS'NInguno'
p4503
aS'nAdA'
p4504
aS'nADA'
p4505
aS'naDa'
p4506
aS'nada'
p4507
aS'nadA'
p4508
aS'todoS'
p4509
aS'tOdoS'
p4510
aS'tOdOS'
p4511
aS'tOdOs'
p4512
aS'tODOS'
p4513
aS'todos'
p4514
aS'todOs'
p4515
aS'todOS'
p4516
aS'toDos'
p4517
aS'tOdos'
p4518
aS'Nosotros no creemos'
p4519
aS'nosotras sabemos'
p4520
aS'Siempre Como'
p4521
aS'Siempre como'
p4522
aS'TODAS ellas'
p4523
aS'TODAS ELLAS'
p4524
aS'Todas ellas'
p4525
aS'todas mis'
p4526
aS'todas Mis'
p4527
aS'Yo me siento responsable'
p4528
aS'ellas no van a'
p4529
aS'pero se siente'
p4530
aS'Porque yo'
p4531
aS'Porque Yo'
p4532
aS'Porque YO'
p4533
aS'TIENES que'
p4534
aS'Tienes que'
p4535
aS'Tienes Que'
p4536
aS'TIENES QUE'
p4537
aS'Un perdedor'
p4538
aS'UN PERDEDOR'
p4539
aS'NADIE CREE'
p4540
aS'Nadie cree'
p4541
aS'Nadie va a creer'
p4542
aS'lo \xc3\xbaniCO'
p4543
aS'lo \xc3\x9anico'
p4544
aS'lo \xc3\xbanicO'
p4545
aS'lo \xc3\xbanico'
p4546
aS'lo \xc3\x9aNICO'
p4547
aS'nada bueno'
p4548
aS'nada Bueno'
p4549
aS'nadie sabr\xc3\xa1'
p4550
aS'Si S\xc3\xb3lo'
p4551
aS'Si s\xc3\xb3lo'
p4552
aS'todos piensan'
p4553
aS'Todos piensan'
p4554
aS'si S\xc3\xb3lo'
p4555
aS'si s\xc3\xb3lo'
p4556
aS'NADA BUENO'
p4557
aS'Nada bueno'
p4558
aS'Nadie sabr\xc3\xa1'
p4559
aS'nadie va a creer'
p4560
aS'LO \xc3\xbanico'
p4561
aS'LO \xc3\x9aNICO'
p4562
aS'Lo \xc3\x9anico'
p4563
aS'LO \xc3\xbanicO'
p4564
aS'Lo \xc3\x9aNICO'
p4565
aS'Lo \xc3\xbanico'
p4566
aS'nadie cree'
p4567
aS'un perdedor'
p4568
aS'todo mi'
p4569
aS'todo Mi'
p4570
aS'todo MI'
p4571
aS'nosotros no creeremos'
p4572
aS'Pero se siente'
p4573
aS'Ellas no van a'
p4574
aS'Yo soy responsable'
p4575
aS'todos mis'
p4576
aS'todos Mis'
p4577
aS'siempre pasa'
p4578
aS'pasa siempre'
p4579
aS'pasa Siempre'
p4580
aS'Nosotros Sabemos'
p4581
aS'Nosotros sabemos'
p4582
aS'nosotras pensamos'
p4583
aS'TOdoS'
p4584
aS'TOdOS'
p4585
aS'ToDoS'
p4586
aS'Todos'
p4587
aS'ToDOS'
p4588
aS'TodoS'
p4589
aS'TOdOs'
p4590
aS'TOdos'
p4591
aS'TodOS'
p4592
aS'ToDOs'
p4593
aS'TODos'
p4594
aS'ToDos'
p4595
aS'TodOs'
p4596
aS'TODOs'
p4597
aS'TODOS'
p4598
aS'NADA'
p4599
aS'Nada'
p4600
aS'NaDA'
p4601
aS'NAda'
p4602
aS'NaDa'
p4603
aS'terrible'
p4604
aS'ninguno'
p4605
aS'ningunO'
p4606
aS'ningUno'
p4607
aS'nosotros nunca'
p4608
aS'nosotros Nunca'
p4609
aS'solAMENTE'
p4610
aS'soLAMENTE'
p4611
aS'soLamente'
p4612
aS'solamente'
p4613
aS'no va a pasar'
p4614
aS'Usted nunca'
p4615
aS'USTED NUNCA'
p4616
aS'Siempre'
p4617
aS'SiemPre'
p4618
aS'SIEMPRE'
p4619
aS'SIempre'
p4620
aS'SIEMpre'
p4621
aS'SiEMPRE'
p4622
aS'COmpleta'
p4623
aS'CoMPLETA'
p4624
aS'COMPLETA'
p4625
aS'Completa'
p4626
aS'JAM\xc3\xa1s'
p4627
aS'JAm\xc3\xa1s'
p4628
aS'JAM\xc3\x81s'
p4629
aS'Jam\xc3\xa1s'
p4630
aS'JAM\xc3\x81S'
p4631
aS'ninguna'
p4632
aS'nInguna'
p4633
aS'ningUna'
p4634
aS'va a terminar'
p4635
aS'USTED SIEMPRE'
p4636
aS'Usted Siempre'
p4637
aS'Usted siempre'
p4638
aS'Nunca nadie'
p4639
aS'TODOS MIS'
p4640
aS'Todos Mis'
p4641
aS'TODOS mis'
p4642
aS'Todos mis'
p4643
aS'Nosotros no pensamos'
p4644
aS'usted no va a'
p4645
aS'Esto no va a'
p4646
aS'nosotros no vamos a'
p4647
aS'Deber\xc3\xada'
p4648
aS'DEBER\xc3\xadA'
p4649
aS'DEBER\xc3\x8dA'
p4650
aS'TENGO'
p4651
aS'TENGo'
p4652
aS'TengO'
p4653
aS'Tengo'
p4654
aS'TEngo'
p4655
aS'S\xc3\xb3lo lo malo'
p4656
aS'Si s\xc3\xb3lo yo'
p4657
aS'Nadie va a saber'
p4658
aS'Todo el mundo piensa'
p4659
aS'todo el mundo piensa'
p4660
aS'nadie va a saber'
p4661
aS'todos pensaran'
p4662
aS'si s\xc3\xb3lo yo'
p4663
aS's\xc3\xb3lo lo malo'
p4664
aS'todos creeran'
p4665
aS'debO'
p4666
aS'deBo'
p4667
aS'debo'
p4668
aS'Tiene que'
p4669
aS'TIENE QUE'
p4670
aS'TIENE que'
p4671
aS'Tiene Que'
p4672
aS'Nosotros no vamos a'
p4673
aS'esto no va a'
p4674
aS'Nosotros sabremos'
p4675
aS'Usted no va a'
p4676
aS'yo caus\xc3\xa9'
p4677
aS'nunca alguien'
p4678
aS'Va a terminar'
p4679
aS'VA A TERMINAR'
p4680
aS'NINGuNA'
p4681
aS'NINGUNA'
p4682
aS'Ninguna'
p4683
aS'NInguna'
p4684
aS'jam\xc3\xa1S'
p4685
aS'jam\xc3\xa1s'
p4686
aS'ellas creer\xc3\xa1n'
p4687
aS'coMPLETA'
p4688
aS'comPleta'
p4689
aS'cOMPLETA'
p4690
aS'completa'
p4691
aS'cOmpleta'
p4692
aS'usted nunca'
p4693
aS'usted Nunca'
p4694
aS'sieMPRE'
p4695
aS'sIEMPRE'
p4696
aS'sIempre'
p4697
aS'siemPre'
p4698
aS'siEMPRE'
p4699
aS'siempRE'
p4700
aS'siempre'
p4701
aS'ellos creer\xc3\xa1n'
p4702
aS'nosotras nunca'
p4703
aS'Ni Un'
p4704
aS'Ni un'
p4705
aS'Ni UN'
p4706
aS'NI UN'
p4707
aS'NI un'
p4708
aS'nunca'
p4709
aS'nUnCa'
p4710
aS'nUnca'
p4711
aS'nunCa'
p4712
aS'nuncA'
p4713
aS'Todas'
p4714
aS'ToDAS'
p4715
aS'TODAS'
p4716
aS'TodaS'
p4717
aS'ToDAs'
p4718
aS'TOdaS'
p4719
aS'TodAs'
p4720
aS'TODAs'
p4721
aS'TOdas'
p4722
aS'Nosotras sabemos'
p4723
aS'nunca Nadie'
p4724
aS'nunca nadie'
p4725
aS'Terminar\xc3\xa1'
p4726
aS'TERMINAR\xc3\x81'
p4727
aS'usted Siempre'
p4728
aS'usted siempre'
p4729
aS'siempre sucede'
p4730
aS'siempre Sucede'
p4731
aS'Eso no va a'
p4732
aS'ellos no van a'
p4733
aS'nosotros no pensamos'
p4734
aS'una perdedora'
p4735
aS'tengO'
p4736
aS'tengo'
p4737
aS'si yo s\xc3\xb3lo'
p4738
aS'todas pensaran'
p4739
aS'completamente equivocado'
p4740
aS'NADA BIEN'
p4741
aS'Nada bien'
p4742
aS'nada bien'
p4743
aS'nada Bien'
p4744
aS'Completamente equivocado'
p4745
aS'Si yo s\xc3\xb3lo'
p4746
aS'Una perdedora'
p4747
aS'Ellos no van a'
p4748
aS'nosotras no sabemos'
p4749
aS'eso no va a'
p4750
aS'Siempre pasa'
p4751
aS'T\xc3\x9a SIEMPRE'
p4752
aS'T\xc3\xba siempre'
p4753
aS'terminar\xc3\xa1'
p4754
aS'nadie Ha'
p4755
aS'nadie ha'
p4756
aS'Nosotros pensamos'
p4757
aS'todas'
p4758
aS'tOdaS'
p4759
aS'todAs'
p4760
aS'tOdas'
p4761
aS'todaS'
p4762
aS'NuNcA'
p4763
aS'NunCa'
p4764
aS'NUNcA'
p4765
aS'NUNCA'
p4766
aS'NuNca'
p4767
aS'NUNca'
p4768
aS'Nunca'
p4769
aS'NUnca'
p4770
aS'NuNCA'
p4771
aS'Nosotras nunca'
p4772
aS'ni un'
p4773
aS'ni UN'
p4774
aS'ni Un'
p4775
aS'ni eL'
p4776
aS'ni el'
p4777
aS'ni El'
p4778
aS'ni EL'
p4779
aS'desesperanzado'
p4780
aS'PERFECTA'
p4781
aS'PERFEcTA'
p4782
aS'Perfecta'
p4783
aS'Un gran'
p4784
aS'Un GRAN'
p4785
aS'Un Gran'
p4786
aS'UN GRAN'
p4787
aS'UN gran'
p4788
aS'T\xc3\x93XICO'
p4789
aS'T\xc3\xb3xico'
p4790
aS'Nosotras no sabemos'
p4791
aS'la PEOR'
p4792
aS'la peor'
p4793
aS'la peOr'
p4794
aS'la Peor'
p4795
aS'comPletamente'
p4796
aS'coMPLETAMENTE'
p4797
aS'cOmpletamente'
p4798
aS'completamente'
p4799
aS'Nunca alguien'
p4800
aS'Ser\xc3\xa1 un desastre'
p4801
aS'Ella no va a'
p4802
aS'nosotros creeremos'
p4803
aS'Nosotras no pensamos'
p4804
aS't\xc3\xba no vas a'
p4805
aS'Una mala'
p4806
aS'Una Mala'
p4807
aS'UNA MALA'
p4808
aS'DebO'
p4809
aS'DEBo'
p4810
aS'Debo'
p4811
aS'DEBO'
p4812
aS'todo lo que yo veo'
p4813
aS'si yo solamente'
p4814
aS'completamente malo'
p4815
aS'Todos van a saber'
p4816
aS'todos van a saber'
p4817
aS'Si yo solamente'
p4818
aS'Todo lo que yo veo'
p4819
aS'deber\xc3\xadas'
p4820
aS'una MALA'
p4821
aS'una Mala'
p4822
aS'una mala'
p4823
aS'T\xc3\xba no vas a'
p4824
aS'ella no va a'
p4825
aS'Yo siempre'
p4826
aS'YO siempre'
p4827
aS'Yo Siempre'
p4828
aS'YO SIEMPRE'
p4829
aS'YO Siempre'
p4830
aS'ser\xc3\xa1 un desastre'
p4831
aS'Nadie ha'
p4832
aS'NADIE HA'
p4833
aS'Nadie Ha'
p4834
aS'NADIE ha'
p4835
aS'LA PEoR'
p4836
aS'LA PEOR'
p4837
aS'La peor'
p4838
aS'La Peor'
p4839
aS'Nosotros no sabemos'
p4840
aS't\xc3\xb3xico'
p4841
aS't\xc3\xb3xicO'
p4842
aS'un Gran'
p4843
aS'uN GRAN'
p4844
aS'un GRAN'
p4845
aS'un gran'
p4846
aS'DESESPERANZADO'
p4847
aS'Desesperanzado'
p4848
aS'perfecta'
p4849
aS'perfeCta'
p4850
aS'NI EL'
p4851
aS'NI El'
p4852
aS'Ni EL'
p4853
aS'NI el'
p4854
aS'Ni El'
p4855
aS'Ni el'
p4856
aS'perfeCto'
p4857
aS'perfecto'
p4858
aS'perfectO'
p4859
aS'Ni Una'
p4860
aS'NI una'
p4861
aS'NI UNA'
p4862
aS'Ni una'
p4863
aS't\xc3\xb3xica'
p4864
aS'UNA gran'
p4865
aS'Una Gran'
p4866
aS'UNA GRAN'
p4867
aS'Una gran'
p4868
aS'todO'
p4869
aS'tOdo'
p4870
aS'tOdO'
p4871
aS'toDO'
p4872
aS'todo'
p4873
aS'tODO'
p4874
aS'toDo'
p4875
aS'va a ser un desastre'
p4876
aS't\xc3\xba Siempre'
p4877
aS't\xc3\xba siempre'
p4878
aS'Toda mi'
p4879
aS'Toda Mi'
p4880
aS'TODA MI'
p4881
aS'TODA mi'
p4882
aS'Como yo siento'
p4883
aS'nosotras no vamos a'
p4884
aS'nosotros vamos a saber'
p4885
aS'\xc3\x89l no va a'
p4886
aS'deber\xc3\xada'
p4887
aS'mi responsabilidad'
p4888
aS'\xc3\x89L sabe'
p4889
aS'\xc3\x89L SABE'
p4890
aS'\xc3\xa9l sabe'
p4891
aS'\xc3\xa9l Sabe'
p4892
aS'\xc3\x89l sabe'
p4893
aS'todos Saben'
p4894
aS'todos saben'
p4895
aS'Todos Saben'
p4896
aS'Todos saben'
p4897
aS'TODOS SABEN'
p4898
aS'TODOS saben'
p4899
aS'si solamente yo'
p4900
aS'completamente mal'
p4901
aS'Deber\xc3\xadas'
p4902
aS'DEBER\xc3\x8dAS'
p4903
aS'\xc3\xa9l no va a'
p4904
aS'Nosotras no vamos a'
p4905
aS'nosotros vamos a creer'
p4906
aS'como yo siento'
p4907
aS'TODO mi'
p4908
aS'Todo Mi'
p4909
aS'Todo mi'
p4910
aS'TODO MI'
p4911
aS'yo siempre'
p4912
aS'yo Siempre'
p4913
aS'Va a ser un desastre'
p4914
aS'una Gran'
p4915
aS'una gran'
p4916
aS'una GRAN'
p4917
aS'Ellos creer\xc3\xa1n'
p4918
aS'TOdO'
p4919
aS'TOdo'
p4920
aS'ToDO'
p4921
aS'TodO'
p4922
aS'TODO'
p4923
aS'ToDo'
p4924
aS'TODo'
p4925
aS'Todo'
p4926
aS'ellos no sabr\xc3\xa1n'
p4927
aS'T\xc3\xb3xica'
p4928
aS'T\xc3\x93XICA'
p4929
aS'ni Una'
p4930
aS'ni una'
p4931
aS'ni UNA'
p4932
aS'PERFEcTo'
p4933
aS'Perfecto'
p4934
aS'PERFEcto'
p4935
aS'PERFECTo'
p4936
aS'PERFECTO'
p4937
aS'ellos piensan'
p4938
aS'Eso es un'
p4939
aS'Ella no sabr\xc3\xa1'
p4940
aS'Esto es una'
p4941
aS'va a ser imposible'
p4942
aS'Usted no sabr\xc3\xa1'
p4943
aS't\xc3\xba siempre eres'
p4944
aS't\xc3\xba piensas'
p4945
aS'D\xc3\x89BIL'
p4946
aS'D\xc3\xa9bil'
p4947
aS'Apesto'
p4948
aS'Ella piensa'
p4949
aS'ella creer\xc3\xa1'
p4950
aS'ella va a saber'
p4951
aS'apesto'
p4952
aS'Ella sabe'
p4953
aS'd\xc3\xa9bil'
p4954
aS'd\xc3\xa9biL'
p4955
aS't\xc3\xba no piensas'
p4956
aS'Usted Sabe'
p4957
aS'Usted sabe'
p4958
aS'USTED SABE'
p4959
aS'T\xc3\xba siempre est\xc3\xa1s'
p4960
aS'usted pensar\xc3\xa1'
p4961
aS'esto es una'
p4962
aS'Va a ser imposible'
p4963
aS'ellas saben'
p4964
aS'eso es un'
p4965
aS'eso Es un'
p4966
aS'Esa es una'
p4967
aS'no va a terminar'
p4968
aS'Ellos saben'
p4969
aS'ser\xc3\xa1 terrible'
p4970
aS'ellas no saben'
p4971
aS'\xc3\xa9l Nunca'
p4972
aS'\xc3\xa9l nunca'
p4973
aS'\xc3\x89l nunca'
p4974
aS'\xc3\x89L NUNCA'
p4975
aS'usted no sabr\xc3\xa1'
p4976
aS'no tan bueno'
p4977
aS'T\xc3\x9a PIENSAS'
p4978
aS'T\xc3\xba piensas'
p4979
aS'usted va a saber'
p4980
aS'ella cree'
p4981
aS'ABSOLUTO'
p4982
aS'ABsoLUTO'
p4983
aS'AbsoLUTo'
p4984
aS'Absoluto'
p4985
aS'ABsoLUTo'
p4986
aS'ABSOLUTo'
p4987
aS'Da\xc3\xb1ada'
p4988
aS'DA\xc3\x91ADA'
p4989
aS'\xc3\xa9l pensar\xc3\xa1'
p4990
aS'\xc3\x89l pensar\xc3\xa1'
p4991
aS'\xc3\xa9l va a creer'
p4992
aS'da\xc3\xb1ada'
p4993
aS'ella sabe'
p4994
aS'ella Sabe'
p4995
aS'abSOlutO'
p4996
aS'abSoluto'
p4997
aS'absolutO'
p4998
aS'abSOluto'
p4999
aS'absoluto'
p5000
aS'T\xc3\xba sabr\xc3\xa1s'
p5001
aS'aceptable sin embargo'
p5002
aS'No tan bueno'
p5003
aS't\xc3\xba vas a creer'
p5004
aS't\xc3\xba no creer\xc3\xa1s'
p5005
aS'Ellos no piensan'
p5006
aS'Ser\xc3\xa1 terrible'
p5007
aS'esa es una'
p5008
aS'Ellas saben'
p5009
aS'No va a terminar'
p5010
aS'ella no va a saber'
p5011
aS'SER\xc3\x81 IMPOSIBLE'
p5012
aS'Ser\xc3\xa1 imposible'
p5013
aS'esta es un'
p5014
aS'esta Es un'
p5015
aS'ellas creen'
p5016
aS'Ellos nunca'
p5017
aS'Usted no creer\xc3\xa1'
p5018
aS'usted no va a saber'
p5019
aS'OK pero'
p5020
aS'T\xc3\xba no piensas'
p5021
aS'Blanco y Negro'
p5022
aS'Blanco y negro'
p5023
aS'Blanco Y Negro'
p5024
aS'usted va a pensar'
p5025
aS'el pensar\xc3\xa1'
p5026
aS'No Sirve'
p5027
aS'NO SIRVE'
p5028
aS'No sirve'
p5029
aS'NO sirve'
p5030
aS'\xc3\xa9l no pensar\xc3\xa1'
p5031
aS'\xc3\xa9l no va a saber'
p5032
aS'\xc3\x89l es un'
p5033
aS'\xc3\xa9l no creer\xc3\xa1'
p5034
aS'\xc3\xa9l Es un'
p5035
aS'\xc3\xa9l es un'
p5036
aS'no Sirve'
p5037
aS'no sirVe'
p5038
aS'no sirve'
p5039
aS'El pensar\xc3\xa1'
p5040
aS'Usted pensar\xc3\xa1'
p5041
aS'blanco y negro'
p5042
aS'blanco y Negro'
p5043
aS'blancO y negro'
p5044
aS'blanCO y negro'
p5045
aS'T\xc3\xba no crees'
p5046
aS'muy bien sin embargo'
p5047
aS't\xc3\xba no sabr\xc3\xa1s'
p5048
aS'usted no va a creer'
p5049
aS'ellos nunca'
p5050
aS'ellos Nunca'
p5051
aS'ellos creen'
p5052
aS'Esta es un'
p5053
aS'ella no sabr\xc3\xa1'
p5054
aS'ser\xc3\xa1 imposible'
p5055
aS'ser\xc3\xa1 Imposible'
p5056
aS'incompetente'
p5057
aS'esa es un'
p5058
aS'Ellas creen'
p5059
aS'Esta es Una'
p5060
aS'Esta es una'
p5061
aS't\xc3\xba no vas a saber'
p5062
aS'T\xc3\xba no creer\xc3\xa1s'
p5063
aS'T\xc3\x9a SABES'
p5064
aS'T\xc3\x9a sabes'
p5065
aS'T\xc3\xba Sabes'
p5066
aS'T\xc3\xba sabes'
p5067
aS'genial pero'
p5068
aS'genial Pero'
p5069
aS't\xc3\xba no sabes'
p5070
aS't\xc3\xba No sabes'
p5071
aS'MeJor'
p5072
aS'Mejor'
p5073
aS'MEJor'
p5074
aS'MEJoR'
p5075
aS'MEjor'
p5076
aS'MEjoR'
p5077
aS'MejOr'
p5078
aS'MEJOR'
p5079
aS'MEjOR'
p5080
aS'\xc3\x89l ES'
p5081
aS'\xc3\x89l es'
p5082
aS'\xc3\x89L Es'
p5083
aS'\xc3\xa9l Es'
p5084
aS'\xc3\xa9l eS'
p5085
aS'\xc3\xa9l ES'
p5086
aS'\xc3\x89L ES'
p5087
aS'\xc3\xa9L es'
p5088
aS'\xc3\x89L es'
p5089
aS'\xc3\xa9l es'
p5090
aS'\xc3\xa9L Es'
p5091
aS'\xc3\x89l Es'
p5092
aS'abSoluta'
p5093
aS'abSOluta'
p5094
aS'absoluta'
p5095
aS'ella no creer\xc3\xa1'
p5096
aS'Ella cree'
p5097
aS'Absoluta'
p5098
aS'ABSOLUTA'
p5099
aS'AbSOluta'
p5100
aS'AbsoluTA'
p5101
aS'ABsoLUTA'
p5102
aS'AbsoLUTA'
p5103
aS'ABSoLUTA'
p5104
aS'\xc3\xa9l no sabr\xc3\xa1'
p5105
aS'mejOr'
p5106
aS'meJor'
p5107
aS'meJOr'
p5108
aS'mejor'
p5109
aS't\xc3\xba no crees'
p5110
aS'usted sabe'
p5111
aS'usted Sabe'
p5112
aS'Usted no va a creer'
p5113
aS'T\xc3\xba no sabr\xc3\xa1s'
p5114
aS'ella no pensar\xc3\xa1'
p5115
aS'esta es Una'
p5116
aS'esta es una'
p5117
aS'esta Es una'
p5118
aS'Esa es un'
p5119
aS'ellos Saben'
p5120
aS'ellos saben'
p5121
aS'INCOMPETENTE'
p5122
aS'INcoMPETENTE'
p5123
aS'Incompetente'
p5124
aFnan
aFnan
aFnan
aFnan
aFnan
aFnan
aFnan
aFnan
aFnan
aFnan
aFnan
aFnan
aFnan
aFnan
aFnan
aFnan
aFnan
aFnan
aFnan
aFnan
aFnan
aFnan
aFnan
aFnan
aFnan
aFnan
aFnan
aFnan
aFnan
aFnan
aFnan
aFnan
aFnan
aFnan
aFnan
aFnan
aFnan
aFnan
aFnan
aFnan
aFnan
aFnan
aFnan
aFnan
aFnan
aFnan
aFnan
aFnan
aFnan
aFnan
aFnan
aFnan
aFnan
aFnan
aFnan
aFnan
aFnan
aFnan
aFnan
aFnan
aFnan
aFnan
aFnan
aFnan
aFnan
aFnan
aFnan
aFnan
aFnan
aFnan
aFnan
aFnan
aFnan
aFnan
aFnan
aFnan
aFnan
aFnan
aFnan
aFnan
aFnan
aFnan
aFnan
aFnan
aFnan
aFnan
aFnan
aFnan
aFnan
aFnan
aFnan
aFnan
aFnan
aFnan
aFnan
aFnan
aFnan
aFnan
aFnan
aFnan
aFnan
aFnan
aFnan
aFnan
aFnan
aFnan
aFnan
aFnan
aFnan
aFnan
aFnan
aFnan
aFnan
aFnan
aFnan
aFnan
aFnan
aFnan
aFnan
aFnan
aFnan
aFnan
aFnan
aFnan
aFnan
aFnan
aFnan
aFnan
aFnan
aFnan
aFnan
aFnan
aFnan
aFnan
aFnan
aFnan
aFnan
aFnan
aFnan
aFnan
aFnan
aFnan
aFnan
aFnan
aFnan
aFnan
aFnan
aFnan
aFnan
aFnan
aFnan
aFnan
aFnan
aFnan
aFnan
aFnan
aFnan
aFnan
aFnan
aFnan
aFnan
aFnan
aFnan
aFnan
aFnan
aFnan
aFnan
aFnan
aFnan
aFnan
aFnan
aFnan
aFnan
aFnan
aFnan
aFnan
aFnan
aFnan
aFnan
aFnan
aFnan
aFnan
aFnan
aFnan
aFnan
aFnan
aFnan
aFnan
aFnan
aFnan
aFnan
aFnan
aFnan
aFnan
aFnan
aFnan
aFnan
aFnan
aFnan
aFnan
aFnan
aFnan
aFnan
aFnan
aFnan
aFnan
aFnan
aFnan
aFnan
aFnan
aFnan
aFnan
aFnan
aFnan
aFnan
aFnan
aFnan
aFnan
aFnan
aFnan
aFnan
aFnan
aFnan
aFnan
aFnan
aFnan
aFnan
aFnan
aFnan
aFnan
aFnan
aFnan
aFnan
aFnan
aFnan
aFnan
aFnan
aFnan
aFnan
aFnan
aFnan
aFnan
aFnan
aFnan
aFnan
aFnan
aFnan
aFnan
aFnan
aFnan
aFnan
aFnan
aFnan
aFnan
aFnan
aFnan
aFnan
aFnan
aFnan
aFnan
aFnan
aFnan
aFnan
aFnan
aFnan
aFnan
aFnan
aFnan
aFnan
aFnan
aFnan
aFnan
aFnan
aFnan
aFnan
aFnan
aFnan
aFnan
aFnan
aFnan
aFnan
aFnan
aFnan
aFnan
aFnan
aFnan
aFnan
aFnan
aFnan
aFnan
aFnan
aFnan
aFnan
aFnan
aFnan
aFnan
aFnan
aFnan
aFnan
aFnan
aFnan
aFnan
aFnan
aFnan
aFnan
aFnan
aFnan
aFnan
aFnan
aFnan
aFnan
aFnan
aFnan
aFnan
aFnan
aFnan
aFnan
aFnan
aFnan
aFnan
aFnan
aFnan
aFnan
aFnan
aFnan
aFnan
aFnan
aFnan
aFnan
aFnan
aFnan
aFnan
aFnan
aFnan
aFnan
aFnan
aFnan
aFnan
aFnan
aFnan
aFnan
aFnan
aFnan
aFnan
aFnan
aFnan
aFnan
aFnan
aFnan
aFnan
aFnan
aFnan
aFnan
aFnan
aFnan
aFnan
aFnan
aFnan
aFnan
aFnan
aFnan
aFnan
aFnan
aFnan
aFnan
aFnan
aFnan
aFnan
aFnan
aFnan
aFnan
aFnan
aFnan
aFnan
aFnan
aFnan
aFnan
aFnan
aFnan
aFnan
aFnan
aFnan
aFnan
aFnan
aFnan
aFnan
aFnan
aFnan
aFnan
aFnan
aFnan
aFnan
aFnan
aFnan
aFnan
aFnan
aFnan
aFnan
aFnan
aFnan
aFnan
aFnan
aFnan
aFnan
aFnan
aFnan
aFnan
aFnan
aFnan
aFnan
aFnan
aFnan
aFnan
aFnan
aFnan
aS'Labeling and mislabeling'
p5125
ag5125
ag5125
ag5125
aS'Mindreading'
p5126
ag5125
aS'Catastrophizing'
p5127
ag5125
ag5125
ag5125
aS'Overgeneralizing'
p5128
ag5126
ag5126
ag5126
aS'Disqualifying the Positive'
p5129
ag5129
ag5126
ag5126
ag5126
ag5125
ag5125
aS'Magnification and Minimization'
p5130
ag5126
ag5125
ag5126
ag5126
ag5126
ag5126
ag5125
ag5125
ag5130
ag5130
ag5126
ag5125
ag5125
ag5125
ag5126
ag5126
ag5126
ag5126
ag5126
ag5126
ag5126
ag5126
ag5129
ag5129
ag5129
ag5126
ag5128
ag5125
ag5125
ag5125
ag5127
ag5125
ag5126
ag5125
ag5125
ag5125
ag5126
ag5125
ag5125
ag5125
ag5125
ag5125
ag5127
ag5127
ag5127
ag5126
ag5125
ag5125
ag5126
ag5128
ag5128
ag5129
ag5129
ag5129
ag5126
ag5126
ag5129
ag5129
ag5129
ag5126
ag5126
ag5126
ag5126
ag5130
ag5130
ag5130
ag5126
ag5126
ag5126
ag5126
ag5126
ag5126
ag5130
ag5130
ag5130
ag5130
ag5130
ag5130
ag5126
ag5130
ag5130
ag5130
ag5126
ag5129
ag5126
ag5129
ag5129
ag5129
ag5129
ag5129
ag5129
ag5129
ag5126
ag5126
ag5128
ag5128
ag5125
ag5125
ag5127
ag5127
ag5125
ag5125
ag5126
ag5127
ag5126
ag5125
ag5125
ag5127
ag5126
ag5127
ag5125
ag5125
ag5126
ag5126
ag5125
ag5125
ag5125
ag5125
ag5125
ag5128
ag5128
aS'Dichotomous Reasoning'
p5131
ag5129
ag5126
ag5126
ag5126
ag5130
ag5130
ag5130
ag5130
ag5130
ag5130
ag5126
ag5126
ag5126
ag5125
ag5125
ag5125
ag5126
ag5126
ag5126
ag5126
ag5125
ag5125
ag5125
ag5130
ag5130
ag5130
ag5130
ag5126
ag5126
ag5126
ag5126
ag5126
ag5131
ag5131
ag5128
ag5128
ag5128
ag5125
ag5126
ag5125
ag5125
ag5125
ag5125
ag5126
ag5127
ag5126
ag5127
ag5127
ag5125
ag5125
ag5125
ag5125
ag5126
ag5125
ag5126
ag5128
ag5128
ag5126
ag5129
ag5129
ag5129
ag5126
ag5126
ag5125
ag5125
ag5125
ag5125
ag5125
ag5125
ag5125
ag5126
ag5126
ag5130
ag5130
ag5130
ag5130
ag5130
ag5126
ag5126
ag5126
ag5126
ag5130
ag5130
ag5125
ag5125
ag5125
ag5125
ag5125
ag5125
ag5125
ag5125
ag5125
ag5125
ag5125
ag5126
ag5125
ag5126
ag5129
ag5129
ag5126
ag5128
ag5126
ag5125
ag5125
ag5125
ag5125
ag5126
ag5127
ag5127
ag5125
ag5125
ag5125
ag5125
ag5125
ag5125
ag5131
ag5131
ag5131
ag5131
ag5131
ag5131
ag5126
ag5125
ag5125
ag5131
ag5131
ag5131
ag5131
ag5131
ag5131
ag5131
ag5131
ag5131
ag5126
ag5131
ag5131
ag5131
ag5131
ag5126
ag5126
ag5126
ag5131
ag5131
ag5131
ag5131
ag5131
ag5131
ag5131
ag5131
ag5128
ag5128
ag5128
ag5128
ag5128
ag5128
ag5128
ag5127
aS'Personalizing'
p5132
aS'Emotional Reasoning'
p5133
ag5133
ag5126
ag5125
ag5125
ag5125
ag5125
ag5125
ag5125
ag5125
ag5132
ag5132
ag5132
ag5132
aS'Mental Filtering'
p5134
ag5126
ag5126
ag5126
ag5126
ag5126
ag5134
ag5126
ag5126
ag5126
ag5126
ag5126
ag5134
ag5134
ag5126
ag5126
ag5132
ag5132
ag5132
ag5132
ag5125
ag5125
ag5125
ag5125
ag5125
ag5133
ag5126
ag5133
ag5132
ag5127
ag5128
ag5128
ag5128
ag5131
ag5131
ag5131
ag5131
ag5131
ag5131
ag5131
ag5131
ag5131
ag5126
ag5126
ag5131
ag5131
ag5131
ag5131
ag5131
ag5131
ag5131
ag5131
ag5131
ag5131
ag5131
ag5131
ag5131
ag5125
ag5125
ag5125
ag5125
ag5125
ag5125
ag5126
ag5131
ag5131
ag5131
ag5125
ag5125
ag5126
ag5125
ag5125
ag5125
ag5125
ag5131
ag5131
ag5131
ag5131
ag5131
ag5131
ag5131
ag5131
ag5131
ag5131
ag5126
ag5126
ag5126
ag5131
ag5131
ag5128
ag5128
ag5128
ag5128
ag5128
ag5128
ag5132
ag5132
ag5132
ag5133
ag5133
ag5125
ag5125
ag5125
ag5125
ag5125
ag5132
ag5126
ag5126
ag5126
ag5126
ag5126
ag5134
ag5134
ag5126
ag5126
ag5126
ag5126
ag5126
ag5126
ag5126
ag5126
ag5134
ag5126
ag5134
ag5132
ag5132
ag5132
ag5132
ag5125
ag5125
ag5125
ag5125
ag5125
ag5126
ag5133
ag5133
ag5132
ag5128
ag5128
ag5128
ag5128
ag5128
ag5128
ag5128
ag5128
ag5128
ag5131
ag5131
ag5131
ag5131
ag5131
ag5131
ag5131
ag5131
ag5126
ag5131
ag5131
ag5125
ag5125
ag5131
ag5131
ag5131
ag5131
ag5131
ag5131
ag5131
ag5131
ag5125
ag5125
ag5125
ag5126
ag5125
ag5125
ag5127
ag5125
ag5125
ag5125
ag5125
ag5125
ag5125
ag5125
ag5125
ag5125
ag5125
ag5125
ag5125
ag5125
ag5125
ag5125
ag5125
ag5125
ag5125
ag5125
ag5126
ag5131
ag5131
ag5131
ag5131
ag5131
ag5131
ag5131
ag5131
ag5131
ag5126
ag5126
ag5128
ag5128
ag5128
ag5128
ag5128
ag5132
ag5132
ag5132
ag5132
ag5132
ag5126
aS'Fortune-telling'
p5135
ag5135
ag5133
aS'Should statements'
p5136
ag5136
ag5132
ag5132
ag5132
ag5132
ag5125
ag5125
ag5134
ag5126
ag5134
ag5130
ag5126
ag5126
ag5126
ag5126
ag5126
ag5130
ag5126
ag5126
ag5134
ag5125
ag5125
ag5125
ag5132
ag5132
ag5136
ag5136
ag5136
ag5136
ag5133
ag5135
ag5135
ag5135
ag5135
ag5126
ag5132
ag5128
ag5128
ag5128
ag5128
ag5128
ag5128
ag5128
ag5128
ag5126
ag5126
ag5126
ag5131
ag5131
ag5131
ag5131
ag5131
ag5131
ag5131
ag5125
ag5125
ag5125
ag5125
ag5125
ag5125
ag5125
ag5125
ag5125
ag5125
ag5125
ag5125
ag5127
ag5127
ag5127
ag5131
ag5131
ag5131
ag5131
ag5126
ag5126
ag5125
ag5125
ag5125
ag5131
ag5131
ag5131
ag5131
ag5131
ag5131
ag5131
ag5131
ag5131
ag5131
ag5131
ag5131
ag5131
ag5131
ag5131
ag5131
ag5131
ag5131
ag5131
ag5131
ag5131
ag5126
ag5126
ag5128
ag5128
ag5128
ag5128
ag5128
ag5132
ag5132
ag5132
ag5135
ag5133
ag5132
ag5132
ag5132
ag5136
ag5136
ag5136
ag5136
ag5125
ag5125
ag5126
ag5126
ag5126
ag5130
ag5130
ag5130
ag5130
ag5130
ag5134
ag5134
ag5126
ag5134
ag5134
ag5126
ag5126
ag5134
ag5134
ag5134
ag5134
ag5126
ag5126
ag5130
ag5130
ag5130
ag5130
ag5130
ag5130
ag5126
ag5125
ag5132
ag5132
ag5132
ag5126
ag5133
ag5135
ag5132
ag5132
ag5132
ag5128
ag5128
ag5128
ag5126
ag5126
ag5126
ag5131
ag5131
ag5131
ag5131
ag5131
ag5131
ag5131
ag5131
ag5131
ag5131
ag5131
ag5131
ag5131
ag5131
ag5131
ag5131
ag5131
ag5131
ag5131
ag5131
ag5125
ag5131
ag5131
ag5131
ag5125
ag5125
ag5131
ag5131
ag5131
ag5131
ag5127
ag5125
ag5125
ag5131
ag5131
ag5131
ag5131
ag5131
ag5131
ag5125
ag5125
ag5125
ag5125
ag5131
ag5131
ag5131
ag5131
ag5131
ag5131
ag5131
ag5131
ag5127
ag5128
ag5128
ag5128
ag5128
ag5132
ag5132
ag5132
ag5132
ag5126
ag5135
ag5135
ag5135
ag5136
ag5136
ag5136
ag5136
ag5136
ag5136
ag5136
ag5136
ag5134
ag5134
ag5126
ag5126
ag5126
ag5126
ag5126
ag5134
ag5134
ag5126
ag5136
ag5136
ag5136
ag5136
ag5136
ag5136
ag5136
ag5135
ag5135
ag5126
ag5135
ag5132
ag5128
ag5127
ag5127
ag5131
ag5131
ag5131
ag5131
ag5131
ag5131
ag5126
ag5125
ag5125
ag5125
ag5125
ag5125
ag5125
ag5125
ag5131
ag5131
ag5131
ag5131
ag5131
ag5131
ag5131
ag5126
ag5125
ag5131
ag5131
ag5131
ag5131
ag5131
ag5131
ag5131
ag5131
ag5131
ag5131
ag5131
ag5131
ag5131
ag5131
ag5131
ag5131
ag5131
ag5131
ag5131
ag5126
ag5128
ag5128
ag5127
ag5127
ag5128
ag5128
ag5128
ag5128
ag5135
ag5135
ag5126
ag5125
ag5136
ag5136
ag5134
ag5126
ag5134
ag5134
ag5134
ag5134
ag5134
ag5134
ag5134
ag5125
ag5135
ag5126
ag5135
ag5128
ag5128
ag5128
ag5127
ag5128
ag5128
ag5126
ag5131
ag5131
ag5131
ag5131
ag5131
ag5131
ag5131
ag5131
ag5131
ag5131
ag5131
ag5131
ag5131
ag5131
ag5125
ag5131
ag5131
ag5131
ag5131
ag5131
ag5131
ag5131
ag5125
ag5131
ag5131
ag5131
ag5125
ag5125
ag5125
ag5125
ag5125
ag5125
ag5125
ag5126
ag5131
ag5131
ag5131
ag5131
ag5128
ag5128
ag5128
ag5128
ag5128
ag5127
ag5135
ag5126
ag5126
ag5135
ag5125
ag5125
ag5125
ag5136
ag5136
ag5136
ag5136
ag5134
ag5134
ag5134
ag5126
ag5126
ag5134
ag5134
ag5136
ag5125
ag5125
ag5125
ag5135
ag5135
ag5128
ag5128
ag5128
ag5128
ag5128
ag5127
ag5128
ag5128
ag5128
ag5128
ag5131
ag5131
ag5131
ag5131
ag5126
ag5125
ag5125
ag5125
ag5125
ag5125
ag5125
ag5125
ag5125
ag5131
ag5131
ag5131
ag5131
ag5131
ag5131
ag5131
ag5131
ag5131
ag5131
ag5131
ag5131
ag5131
ag5131
ag5131
ag5125
ag5125
ag5125
ag5125
ag5125
ag5131
ag5131
ag5131
ag5131
ag5131
ag5131
ag5131
ag5127
ag5128
ag5128
ag5132
ag5132
ag5132
ag5132
ag5133
ag5135
ag5126
ag5135
ag5136
ag5132
ag5126
ag5126
ag5126
ag5126
ag5126
ag5126
ag5126
ag5126
ag5126
ag5126
ag5126
ag5134
ag5134
ag5136
ag5136
ag5135
ag5135
ag5126
ag5133
ag5132
ag5132
ag5132
ag5132
ag5128
ag5128
ag5127
ag5125
ag5125
ag5125
ag5126
ag5131
ag5131
ag5131
ag5131
ag5131
ag5131
ag5131
ag5131
ag5126
ag5125
ag5125
ag5131
ag5131
ag5131
ag5131
ag5131
ag5131
ag5131
ag5131
ag5126
ag5125
ag5126
ag5125
ag5127
ag5126
ag5128
ag5126
ag5125
ag5125
ag5125
ag5126
ag5126
ag5126
ag5125
ag5126
ag5125
ag5125
ag5126
ag5126
ag5126
ag5126
ag5128
ag5126
ag5125
ag5127
ag5126
ag5125
ag5125
ag5125
ag5127
ag5126
ag5127
ag5126
ag5125
ag5125
ag5125
ag5125
ag5126
ag5129
ag5126
ag5126
ag5126
ag5126
ag5125
ag5125
ag5125
ag5125
ag5125
ag5125
ag5125
ag5125
ag5126
ag5126
ag5126
ag5125
ag5126
ag5126
ag5125
ag5125
ag5125
ag5125
ag5125
ag5126
ag5129
ag5129
ag5126
ag5126
ag5126
ag5127
ag5125
ag5126
ag5127
ag5126
ag5127
ag5127
ag5125
ag5125
ag5126
ag5125
ag5126
ag5126
ag5129
ag5126
ag5131
ag5131
ag5131
ag5126
ag5126
ag5125
ag5125
ag5125
ag5125
ag5126
ag5126
ag5125
ag5126
ag5125
ag5125
ag5125
ag5125
ag5125
ag5126
ag5126
ag5131
ag5131
ag5131
ag5131
ag5126
ag5129
ag5126
ag5126
ag5125
ag5125
ag5126
ag5125
ag5126
ag5127
ag5127
ag5125
ag5125
ag5126
ag5125
ag5125
ag5126
ag5126
ag5126
ag5126
ag5126
ag5126
ag5129
ag5129
ag5126
ag5126
ag5130
ag5130
ag5130
ag5130
ag5130
ag5130
ag5130
ag5130
ag5130
ag5125
ag5125
ag5125
ag5125
ag5125
ag5125
ag5125
ag5125
ag5125
ag5125
ag5125
ag5125
ag5125
ag5125
ag5125
ag5126
ag5126
ag5125
ag5125
ag5125
ag5125
ag5125
ag5125
ag5125
ag5126
ag5130
ag5130
ag5130
ag5130
ag5126
ag5126
ag5126
ag5126
ag5126
ag5126
ag5125
ag5125
ag5125
ag5125
ag5126
ag5126
ag5125
ag5125
ag5125
aFnan
aFnan
aFnan
aFnan
aFnan
aFnan
aFnan
aFnan
aFnan
aFnan
aFnan
aFnan
aFnan
aFnan
aFnan
aFnan
aFnan
aFnan
aFnan
aFnan
aFnan
aFnan
aFnan
aFnan
aFnan
aFnan
aFnan
aFnan
aFnan
aFnan
aFnan
aFnan
aFnan
aFnan
aFnan
aFnan
aFnan
aFnan
aFnan
aFnan
aFnan
aFnan
aFnan
aFnan
aFnan
aFnan
aFnan
aFnan
aFnan
aFnan
aFnan
aFnan
aFnan
aFnan
aFnan
aFnan
aFnan
aFnan
aFnan
aFnan
aFnan
aFnan
aFnan
aFnan
aFnan
aFnan
aFnan
aFnan
aFnan
aFnan
aFnan
aFnan
aFnan
aFnan
aFnan
aFnan
aFnan
aFnan
aFnan
aFnan
aFnan
aFnan
aFnan
aFnan
aFnan
aFnan
aFnan
aFnan
aFnan
aFnan
aFnan
aFnan
aFnan
aFnan
aFnan
aFnan
aFnan
aFnan
aFnan
aFnan
aFnan
aFnan
aFnan
aFnan
aFnan
aFnan
aFnan
aFnan
aFnan
aFnan
aFnan
aFnan
aFnan
aFnan
aFnan
aFnan
aFnan
aFnan
aFnan
aFnan
aFnan
aFnan
aFnan
aFnan
aFnan
aFnan
aFnan
aFnan
aFnan
aFnan
aFnan
aFnan
aFnan
aFnan
aFnan
aFnan
aFnan
aFnan
aFnan
aFnan
aFnan
aFnan
aFnan
aFnan
aFnan
aFnan
aFnan
aFnan
aFnan
aFnan
aFnan
aFnan
aFnan
aFnan
aFnan
aFnan
aFnan
aFnan
aFnan
aFnan
aFnan
aFnan
aFnan
aFnan
aFnan
aFnan
aFnan
aFnan
aFnan
aFnan
aFnan
aFnan
aFnan
aFnan
aFnan
aFnan
aFnan
aFnan
aFnan
aFnan
aFnan
aFnan
aFnan
aFnan
aFnan
aFnan
aFnan
aFnan
aFnan
aFnan
aFnan
aFnan
aFnan
aFnan
aFnan
aFnan
aFnan
aFnan
aFnan
aFnan
aFnan
aFnan
aFnan
aFnan
aFnan
aFnan
aFnan
aFnan
aFnan
aFnan
aFnan
aFnan
aFnan
aFnan
aFnan
aFnan
aFnan
aFnan
aFnan
aFnan
aFnan
aFnan
aFnan
aFnan
aFnan
aFnan
aFnan
aFnan
aFnan
aFnan
aFnan
aFnan
aFnan
aFnan
aFnan
aFnan
aFnan
aFnan
aFnan
aFnan
aFnan
aFnan
aFnan
aFnan
aFnan
aFnan
aFnan
aFnan
aFnan
aFnan
aFnan
aFnan
aFnan
aFnan
aFnan
aFnan
aFnan
aFnan
aFnan
aFnan
aFnan
aFnan
aFnan
aFnan
aFnan
aFnan
aFnan
aFnan
aFnan
aFnan
aFnan
aFnan
aFnan
aFnan
aFnan
aFnan
aFnan
aFnan
aFnan
aFnan
aFnan
aFnan
aFnan
aFnan
aFnan
aFnan
aFnan
aFnan
aFnan
aFnan
aFnan
aFnan
aFnan
aFnan
aFnan
aFnan
aFnan
aFnan
aFnan
aFnan
aFnan
aFnan
aFnan
aFnan
aFnan
aFnan
aFnan
aFnan
aFnan
aFnan
aFnan
aFnan
aFnan
aFnan
aFnan
aFnan
aFnan
aFnan
aFnan
aFnan
aFnan
aFnan
aFnan
aFnan
aFnan
aFnan
aFnan
aFnan
aFnan
aFnan
aFnan
aFnan
aFnan
aFnan
aFnan
aFnan
aFnan
aFnan
aFnan
aFnan
aFnan
aFnan
aFnan
aFnan
aFnan
aFnan
aFnan
aFnan
aFnan
aFnan
aFnan
aFnan
aFnan
aFnan
aFnan
aFnan
aFnan
aFnan
aFnan
aFnan
aFnan
aFnan
aFnan
aFnan
aFnan
aFnan
aFnan
aFnan
aFnan
aFnan
aFnan
aFnan
aFnan
aFnan
aFnan
aFnan
aFnan
aFnan
aFnan
aFnan
aFnan
aFnan
aFnan
aFnan
aFnan
aFnan
aFnan
aFnan
aFnan
aFnan
aFnan
aFnan
aFnan
aFnan
aFnan
aFnan
aFnan
aFnan
aFnan
aFnan
aFnan
aFnan
aFnan
aFnan
aFnan
aFnan
aFnan
aFnan
aFnan
aFnan
aFnan
aFnan
aFnan
aFnan
aFnan
aS'horrible'
p5137
ag5137
aS'indefenso'
p5138
ag5138
aS'Ellos no creen'
p5139
aS'Eso es una'
p5140
aS'va a ser horrible'
p5141
aS'Ella nunca'
p5142
ag5142
aS'Ellas son unas'
p5143
aS'Ellos siempre'
p5144
aS't\xc3\xba no pensar\xc3\xa1s'
p5145
aS'usted no creer\xc3\xa1'
p5146
aS't\xc3\xba crees'
p5147
aS'bueno pero'
p5148
ag5148
aS'usted creer\xc3\xa1'
p5149
aS'usted va a pensar'
p5150
aS'\xc3\xa9l no cree'
p5151
aS'una completa'
p5152
ag5152
aS'no es importante'
p5153
aS'\xc3\xa9l va a pensar'
p5154
aS'chupa'
p5155
aS'Ella no sabe'
p5156
aS'Ella pensar\xc3\xa1'
p5157
aS'Ella va a pensar'
p5158
aS'Ella no cree'
p5159
ag5155
ag5155
ag5153
ag5153
ag5151
ag5152
ag5152
ag5152
aS't\xc3\xba pensar\xc3\xa1s'
p5160
aS't\xc3\xba no sabes'
p5161
ag5161
ag5161
aS'usted cree'
p5162
ag5162
ag5162
ag5162
ag5148
ag5148
aS'aceptable pero'
p5163
aS'Nosotros no sabremos'
p5164
aS'Ellas siempre'
p5165
ag5143
ag5142
ag5140
ag5141
ag5138
aS'Ellas no creen'
p5166
ag5137
ag5137
ag5137
ag5139
aS'indefensa'
p5167
aS'feo'
p5168
ag5168
ag5168
ag5168
aS'fracasar\xc3\xa1'
p5169
aS'ser\xc3\xa1 horrible'
p5170
aS'fallar\xc3\xa1'
p5171
aS'Ellos creen'
p5172
aS'Ellos son unos'
p5173
aS'Ellas nunca'
p5174
aS'usted no pensar\xc3\xa1'
p5175
aS'Ella siempre'
p5176
ag5176
aS'no tan'
p5177
ag5177
ag5177
aS't\xc3\xba sabes'
p5178
ag5178
aS'bien pero'
p5179
ag5179
aS'eso no fue'
p5180
aS't\xc3\xba vas a pensar'
p5181
aS't\xc3\xba creer\xc3\xa1s'
p5182
aS'Sabra'
p5183
ag5183
aS'no importante'
p5184
aS'peor'
p5185
ag5185
aS'\xc3\x89l piensa'
p5186
ag5186
ag5157
ag5156
aS'Ella no piensa'
p5187
aS'\xc3\xa9l no sabr\xc3\xa1'
p5188
ag5185
ag5185
ag5185
ag5185
ag5185
ag5185
ag5183
ag5184
ag5184
ag5184
ag5160
ag5180
ag5164
ag5179
ag5179
ag5177
ag5177
ag5177
ag5177
ag5177
ag5162
ag5162
ag5165
ag5165
ag5174
ag5173
ag5171
ag5170
ag5168
ag5168
aS'Ellos van a creer'
p5189
ag5169
aS'Ellas piensan'
p5190
ag5167
ag5167
aS'nunca va a terminar'
p5191
aS'Ellos piensan'
p5192
aS'va a fallar'
p5193
aS'indeseable'
p5194
ag5194
ag5166
aS'Ellos no piensan'
p5195
aS'Esto es un'
p5196
ag5196
aS'Ella es una'
p5197
ag5197
ag5197
aS'Yo siempre estoy'
p5198
aS'Usted siempre est\xc3\xa1'
p5199
aS'esto o'
p5200
aS'bueno sin embargo'
p5201
aS'usted sabr\xc3\xa1'
p5202
aS't\xc3\xba vas a saber'
p5203
aS'Ella piensa'
p5204
aS'no importa'
p5205
ag5205
ag5205
ag5205
ag5205
ag5205
aS'\xc3\xa9l creer\xc3\xa1'
p5206
ag5206
aS'\xc3\xa9l no sabe'
p5207
aS'un completo'
p5208
ag5208
ag5208
ag5158
aS'Ella creer\xc3\xa1'
p5209
aS'Ella sabr\xc3\xa1'
p5210
ag5207
ag5208
ag5208
ag5208
ag5205
ag5205
ag5205
ag5205
ag5159
ag5149
ag5147
ag5147
ag5147
ag5200
ag5200
ag5144
ag5144
aS'T\xc3\xba siempre est\xc3\xa1s'
p5211
ag5197
aS'Ellas no piensan'
p5212
ag5196
ag5196
ag5194
ag5194
aS'Ellos no saben'
p5213
ag5193
ag5190
ag5191
aS'va a fracasar'
p5214
aS'fea'
p5215
ag5215
ag5215
ag5215
aS'Ellas no saben'
p5216
aS'no amable'
p5217
ag5145
ag5199
ag5198
ag5182
aS'buena pero'
p5218
aS'bien sin embargo'
p5219
ag5219
ag5203
ag5202
aS'da\xc3\xb1ado'
p5220
ag5220
ag5220
aS'mayor'
p5221
ag5221
ag5221
ag5221
aS'\xc3\xa9l no piensa'
p5222
aS'\xc3\xa9l va a saber'
p5223
aS'no cuenta'
p5224
ag5224
ag5224
ag5224
ag5224
ag5187
aS'Ella va a saber'
p5225
ag5210
ag5223
ag5224
ag5224
ag5221
ag5221
ag5221
ag5221
ag5221
ag5221
ag5221
ag5221
ag5221
ag5221
ag5221
ag5222
ag5220
aS't\xc3\xba sabr\xc3\xa1s'
p5226
ag5218
ag5218
ag5175
aS'T\xc3\xba siempre eres'
p5227
ag5213
ag5217
ag5215
ag5215
ag5215
ag5212
aS'nunca terminara'
p5228
ag5214
aS'roto'
p5229
ag5229
ag5229
ag5229
ag5229
ag5229
aS'ni la'
p5230
ag5230
ag5230
ag5230
ag5230
ag5230
aS'Ellas pensar\xc3\xa1n'
p5231
aS'sin esperanza'
p5232
ag5232
aS'todo el mundo'
p5233
ag5233
ag5233
ag5233
ag5233
ag5233
ag5233
ag5233
ag5233
aS'Ellos no sabr\xc3\xa1n'
p5234
aS'todas partes'
p5235
ag5235
ag5235
ag5235
aS'Nosotras no creemos'
p5236
aS'Nosotros creemos'
p5237
ag5237
aS'el peor'
p5238
ag5238
ag5238
aS'la mejor'
p5239
ag5239
ag5239
ag5239
ag5239
aS'completamente'
p5240
ag5240
ag5240
aS'Todos ellos'
p5241
ag5241
ag5241
ag5241
aS'va a ser terrible'
p5242
aS'Todo mi culpa'
p5243
aS'todav\xc3\xada se siente'
p5244
aS'porque se siente'
p5245
aS'Nosotros no vamos a saber'
p5246
aS'Yo soy un'
p5247
ag5247
aS'Yo nunca'
p5248
ag5248
ag5248
ag5248
ag5248
aS'Porque mi'
p5249
ag5249
ag5249
aS'mala m\xc3\xada'
p5250
aS'Todo lo que veo'
p5251
aS'Nadie sabe'
p5252
ag5252
ag5252
ag5252
aS'Nadie pensar\xc3\xa1'
p5253
aS'Todo lo que puedo ver'
p5254
aS'Todas creen'
p5255
aS'Todas saben'
p5256
ag5256
ag5255
ag5253
ag5254
ag5251
ag5252
ag5252
aS'Por mi'
p5257
ag5257
ag5257
ag5257
ag5248
ag5248
ag5248
ag5247
ag5247
ag5245
aS'Nosotros vamos a pensar'
p5258
ag5244
aS'Toda mi culpa'
p5259
ag5242
aS'Todo el tiempo'
p5260
ag5260
aS'sucede siempre'
p5261
ag5239
ag5239
ag5239
ag5239
ag5239
ag5239
ag5239
ag5239
ag5238
aS'Nosotras creemos'
p5262
aS'Nosotros no sabemos'
p5263
ag5235
ag5235
ag5235
ag5235
ag5235
ag5235
ag5235
ag5233
ag5233
ag5233
ag5233
ag5233
ag5233
ag5232
ag5232
ag5229
ag5229
ag5229
ag5229
aS'Ellos pensar\xc3\xa1n'
p5264
ag5230
ag5230
ag5230
aS'sin valor'
p5265
ag5265
aS'Ellos van a saber'
p5266
aS'desesperanzada'
p5267
aS'totalmente'
p5268
ag5268
ag5268
aS's\xc3\xb3lo'
p5269
ag5269
ag5269
ag5269
ag5269
ag5269
ag5269
ag5269
aS'toda la gente'
p5270
ag5270
ag5237
ag5237
ag5236
aS'el mejor'
p5271
aS'en ninguna parte'
p5272
aS'\xc3\x89l siempre'
p5273
ag5273
ag5273
ag5273
aS'pasa siempre'
p5274
aS'todos y cada uno de'
p5275
aS'Yo soy responsable'
p5276
aS'Toda mi'
p5277
ag5277
aS'pero yo siento'
p5278
aS'porque yo siento'
p5279
aS'un mal'
p5280
ag5280
ag5280
ag5280
aS'Yo soy una'
p5281
aS'mi responsabilidad'
p5282
aS'\xc3\x89l cree'
p5283
ag5283
ag5283
aS'Nadie piensa'
p5284
ag5284
aS'Yo s\xc3\xb3lo veo'
p5285
aS'Si eso solo'
p5286
aS'Todo el mundo sabe'
p5287
ag5287
ag5287
aS'Todo el mundo cree'
p5288
ag5288
ag5287
ag5287
ag5287
ag5286
ag5284
ag5285
ag5257
ag5257
ag5257
ag5257
ag5281
ag5280
ag5280
ag5280
ag5280
aS'Nosotros creeremos'
p5289
ag5279
ag5278
ag5259
ag5275
ag5275
ag5275
ag5261
ag5260
ag5260
ag5260
ag5260
ag5260
ag5272
ag5272
ag5271
ag5271
ag5271
ag5271
ag5271
ag5271
aS'Nosotros no creemos'
p5290
ag5270
ag5270
ag5268
ag5268
ag5269
ag5269
ag5269
ag5269
ag5269
ag5269
ag5269
ag5269
ag5267
ag5265
ag5265
aS'Ellos sabran'
p5291
aS'T\xc3\xba nunca'
p5292
ag5292
aS'no pasar\xc3\xa1'
p5293
aS'total'
p5294
ag5294
ag5294
ag5294
ag5294
ag5294
ag5294
ag5294
ag5294
ag5294
ag5294
ag5294
ag5294
ag5294
aS'rota'
p5295
ag5295
ag5295
ag5295
ag5295
ag5264
aS'cada'
p5296
ag5296
ag5296
ag5296
ag5296
ag5296
aS'nadie'
p5297
ag5297
ag5297
ag5262
aS'Nosotros pensamos'
p5298
aS'Todas ellas'
p5299
ag5299
ag5299
aS'siempre como'
p5300
ag5300
aS'Yo me siento responsable'
p5301
aS'Todas mis'
p5302
ag5302
ag5302
ag5302
aS'Nosotras sabremos'
p5303
aS'Yo no voy a'
p5304
ag5304
aS'ya que se siente'
p5305
aS'tienes que'
p5306
ag5306
aS'Porque yo'
p5307
ag5307
ag5307
ag5307
aS'una carga'
p5308
ag5308
aS's\xc3\xb3lo lo peor'
p5309
aS'Nadie va a pensar'
p5310
aS'S\xc3\xb3lo puedo pensar'
p5311
aS'la \xc3\xbanica cosa'
p5312
aS'Nadie creer\xc3\xa1'
p5313
aS'Todas piensan'
p5314
aS'Todos creen'
p5315
ag5315
ag5314
ag5312
ag5313
ag5310
ag5311
ag5308
ag5308
ag5308
ag5249
ag5249
aS'tiene que'
p5316
ag5316
ag5316
ag5316
ag5305
ag5304
ag5304
ag5304
ag5304
aS'Nosotros sabremos'
p5317
aS'Yo caus\xc3\xa9'
p5318
aS'Siempre sucede'
p5319
ag5241
ag5241
ag5241
ag5241
ag5241
ag5241
ag5176
aS'Nosotras pensamos'
p5320
aS'Nosotros sabemos'
p5321
ag5321
ag5297
ag5296
ag5296
ag5296
ag5296
ag5296
ag5296
ag5295
ag5295
ag5295
ag5294
ag5294
ag5294
ag5294
ag5294
ag5294
ag5294
ag5294
ag5292
ag5293
ag5293
aS'no va a pasar'
p5322
aS'solamente'
p5323
ag5323
ag5323
ag5323
aS'Ellos no pensar\xc3\xa1n'
p5324
aS'Ellos van a pensar'
p5325
aS'Nosotros nunca'
p5326
aS'terrible'
p5327
ag5327
aS'ninguno'
p5328
ag5328
ag5328
ag5328
ag5328
ag5328
aS'nada'
p5329
ag5329
ag5329
ag5329
ag5329
aS'todos'
p5330
ag5330
ag5330
ag5330
ag5330
ag5330
ag5330
ag5330
ag5330
ag5330
ag5290
aS'Nosotras sabemos'
p5331
ag5300
ag5300
ag5299
ag5299
ag5299
ag5302
ag5302
ag5301
aS'ellas no van a'
p5332
aS'pero se siente'
p5333
ag5307
ag5307
ag5307
ag5306
ag5306
ag5306
ag5306
aS'un perdedor'
p5334
ag5334
aS'Nadie cree'
p5335
ag5335
aS'Nadie va a creer'
p5336
aS'lo \xc3\xbanico'
p5337
ag5337
ag5337
ag5337
ag5337
aS'Nada bueno'
p5338
ag5338
aS'Nadie sabr\xc3\xa1'
p5339
aS'si s\xc3\xb3lo'
p5340
ag5340
aS'Todos piensan'
p5341
ag5341
ag5340
ag5340
ag5338
ag5338
ag5339
ag5336
ag5337
ag5337
ag5337
ag5337
ag5337
ag5337
ag5335
ag5334
aS'Todo mi'
p5342
ag5342
ag5342
aS'Nosotros no creeremos'
p5343
ag5333
ag5332
ag5276
aS'Todos mis'
p5344
ag5344
aS'Siempre pasa'
p5345
ag5274
ag5274
ag5321
ag5321
ag5320
ag5330
ag5330
ag5330
ag5330
ag5330
ag5330
ag5330
ag5330
ag5330
ag5330
ag5330
ag5330
ag5330
ag5330
ag5330
ag5329
ag5329
ag5329
ag5329
ag5329
ag5327
ag5328
ag5328
ag5328
ag5326
ag5326
ag5323
ag5323
ag5323
ag5323
ag5322
aS'Usted nunca'
p5346
ag5346
aS'siempre'
p5347
ag5347
ag5347
ag5347
ag5347
ag5347
aS'completa'
p5348
ag5348
ag5348
ag5348
aS'jam\xc3\xa1s'
p5349
ag5349
ag5349
ag5349
ag5349
aS'ninguna'
p5350
ag5350
ag5350
aS'va a terminar'
p5351
aS'Usted siempre'
p5352
ag5352
ag5352
aS'nunca nadie'
p5353
ag5344
ag5344
ag5344
ag5344
aS'Nosotros no pensamos'
p5354
aS'Usted no va a'
p5355
aS'esto no va a'
p5356
aS'Nosotros no vamos a'
p5357
aS'deber\xc3\xada'
p5358
ag5358
ag5358
aS'tengo'
p5359
ag5359
ag5359
ag5359
ag5359
aS's\xc3\xb3lo lo malo'
p5360
aS'Si s\xc3\xb3lo yo'
p5361
aS'Nadie va a saber'
p5362
aS'Todo el mundo piensa'
p5363
ag5363
ag5362
aS'Todos pensaran'
p5364
ag5361
ag5360
aS'Todos creeran'
p5365
aS'debo'
p5366
ag5366
ag5366
ag5316
ag5316
ag5316
ag5316
ag5357
ag5356
ag5317
ag5355
ag5318
aS'nunca alguien'
p5367
ag5351
ag5351
ag5350
ag5350
ag5350
ag5350
ag5349
ag5349
aS'Ellas creer\xc3\xa1n'
p5368
ag5348
ag5348
ag5348
ag5348
ag5348
ag5346
ag5346
ag5347
ag5347
ag5347
ag5347
ag5347
ag5347
ag5347
aS'Ellos creer\xc3\xa1n'
p5369
aS'Nosotras nunca'
p5370
aS'ni un'
p5371
ag5371
ag5371
ag5371
ag5371
aS'nunca'
p5372
ag5372
ag5372
ag5372
ag5372
aS'todas'
p5373
ag5373
ag5373
ag5373
ag5373
ag5373
ag5373
ag5373
ag5373
ag5331
ag5353
ag5353
aS'terminar\xc3\xa1'
p5374
ag5374
ag5352
ag5352
ag5319
ag5319
aS'eso no va a'
p5375
aS'ellos no van a'
p5376
ag5354
aS'una perdedora'
p5377
ag5359
ag5359
aS'Si yo s\xc3\xb3lo'
p5378
aS'Todas pensaran'
p5379
aS'completamente equivocado'
p5380
aS'Nada bien'
p5381
ag5381
ag5381
ag5381
ag5380
ag5378
ag5377
ag5376
aS'Nosotras no sabemos'
p5382
ag5375
ag5345
aS'T\xc3\xba siempre'
p5383
ag5383
ag5374
aS'nadie ha'
p5384
ag5384
ag5298
ag5373
ag5373
ag5373
ag5373
ag5373
ag5372
ag5372
ag5372
ag5372
ag5372
ag5372
ag5372
ag5372
ag5372
ag5370
ag5371
ag5371
ag5371
aS'ni el'
p5385
ag5385
ag5385
ag5385
aS'desesperanzado'
p5386
aS'perfecta'
p5387
ag5387
ag5387
aS'un gran'
p5388
ag5388
ag5388
ag5388
ag5388
aS't\xc3\xb3xico'
p5389
ag5389
ag5382
aS'la peor'
p5390
ag5390
ag5390
ag5390
ag5240
ag5240
ag5240
ag5240
ag5367
aS'ser\xc3\xa1 un desastre'
p5391
aS'ella no va a'
p5392
ag5289
aS'Nosotras no pensamos'
p5393
aS'T\xc3\xba no vas a'
p5394
aS'una mala'
p5395
ag5395
ag5395
ag5366
ag5366
ag5366
ag5366
aS'Todo lo que yo veo'
p5396
aS'Si yo solamente'
p5397
aS'completamente malo'
p5398
aS'Todos van a saber'
p5399
ag5399
ag5397
ag5396
aS'deber\xc3\xadas'
p5400
ag5395
ag5395
ag5395
ag5394
ag5392
aS'Yo siempre'
p5401
ag5401
ag5401
ag5401
ag5401
ag5391
ag5384
ag5384
ag5384
ag5384
ag5390
ag5390
ag5390
ag5390
ag5263
ag5389
ag5389
ag5388
ag5388
ag5388
ag5388
ag5386
ag5386
ag5387
ag5387
ag5385
ag5385
ag5385
ag5385
ag5385
ag5385
aS'perfecto'
p5402
ag5402
ag5402
aS'ni una'
p5403
ag5403
ag5403
ag5403
aS't\xc3\xb3xica'
p5404
aS'una gran'
p5405
ag5405
ag5405
ag5405
aS'todo'
p5406
ag5406
ag5406
ag5406
ag5406
ag5406
ag5406
aS'va a ser un desastre'
p5407
ag5383
ag5383
ag5277
ag5277
ag5277
ag5277
aS'como yo siento'
p5408
aS'Nosotras no vamos a'
p5409
aS'Nosotros vamos a saber'
p5410
aS'\xc3\x89l no va a'
p5411
ag5358
ag5282
aS'\xc3\xa9l sabe'
p5412
ag5412
ag5412
ag5412
ag5412
aS'Todos saben'
p5413
ag5413
ag5413
ag5413
ag5413
ag5413
aS'Si solamente yo'
p5414
aS'completamente mal'
p5415
ag5400
ag5400
ag5411
ag5409
aS'Nosotros vamos a creer'
p5416
ag5408
ag5342
ag5342
ag5342
ag5342
ag5401
ag5401
ag5407
ag5405
ag5405
ag5405
ag5369
ag5406
ag5406
ag5406
ag5406
ag5406
ag5406
ag5406
ag5406
ag5234
ag5404
ag5404
ag5403
ag5403
ag5403
ag5402
ag5402
ag5402
ag5402
ag5402
ag5192
aS'Eso es un'
p5417
aS'Ella no sabr\xc3\xa1'
p5418
aS'Esto es una'
p5419
aS'va a ser imposible'
p5420
aS'usted no sabr\xc3\xa1'
p5421
ag5227
aS't\xc3\xba piensas'
p5422
aS'd\xc3\xa9bil'
p5423
ag5423
aS'apesto'
p5424
ag5204
ag5209
ag5225
ag5424
aS'Ella sabe'
p5425
ag5423
ag5423
aS't\xc3\xba no piensas'
p5426
aS'usted sabe'
p5427
ag5427
ag5427
ag5211
aS'usted pensar\xc3\xa1'
p5428
ag5419
ag5420
aS'Ellas saben'
p5429
ag5417
ag5417
aS'Esa es una'
p5430
aS'no va a terminar'
p5431
aS'Ellos saben'
p5432
aS'ser\xc3\xa1 terrible'
p5433
ag5216
aS'\xc3\x89l nunca'
p5434
ag5434
ag5434
ag5434
ag5421
aS'no tan bueno'
p5435
ag5422
ag5422
aS'usted va a saber'
p5436
aS'Ella cree'
p5437
aS'absoluto'
p5438
ag5438
ag5438
ag5438
ag5438
ag5438
aS'da\xc3\xb1ada'
p5439
ag5439
aS'\xc3\x89l pensar\xc3\xa1'
p5440
ag5440
aS'\xc3\xa9l va a creer'
p5441
ag5439
ag5425
ag5425
ag5438
ag5438
ag5438
ag5438
ag5438
ag5226
aS'aceptable sin embargo'
p5442
ag5435
aS't\xc3\xba vas a creer'
p5443
aS't\xc3\xba no creer\xc3\xa1s'
p5444
ag5195
ag5433
ag5430
ag5429
ag5431
aS'Ella no va a saber'
p5445
aS'ser\xc3\xa1 imposible'
p5446
ag5446
aS'Esta es un'
p5447
ag5447
aS'Ellas creen'
p5448
aS'Ellos nunca'
p5449
ag5146
aS'usted no va a saber'
p5450
aS'OK pero'
p5451
ag5426
aS'blanco y negro'
p5452
ag5452
ag5452
ag5150
aS'el pensar\xc3\xa1'
p5453
aS'no sirve'
p5454
ag5454
ag5454
ag5454
aS'\xc3\xa9l no pensar\xc3\xa1'
p5455
aS'\xc3\x89l no va a saber'
p5456
aS'\xc3\x89l es un'
p5457
aS'\xc3\xa9l no creer\xc3\xa1'
p5458
ag5457
ag5457
ag5454
ag5454
ag5454
ag5453
ag5428
ag5452
ag5452
ag5452
ag5452
aS't\xc3\xba no crees'
p5459
aS'muy bien sin embargo'
p5460
aS't\xc3\xba no sabr\xc3\xa1s'
p5461
aS'usted no va a creer'
p5462
ag5449
ag5449
ag5172
ag5447
ag5418
ag5446
ag5446
aS'incompetente'
p5463
aS'Esa es un'
p5464
ag5448
aS'Esta es una'
p5465
ag5465
aS't\xc3\xba no vas a saber'
p5466
ag5444
ag5178
ag5178
ag5178
ag5178
aS'genial pero'
p5467
ag5467
ag5161
ag5161
aS'mejor'
p5468
ag5468
ag5468
ag5468
ag5468
ag5468
ag5468
ag5468
ag5468
aS'\xc3\xa9l es'
p5469
ag5469
ag5469
ag5469
ag5469
ag5469
ag5469
ag5469
ag5469
ag5469
ag5469
ag5469
aS'absoluta'
p5470
ag5470
ag5470
aS'Ella no creer\xc3\xa1'
p5471
ag5437
ag5470
ag5470
ag5470
ag5470
ag5470
ag5470
ag5470
ag5188
ag5468
ag5468
ag5468
ag5468
ag5459
ag5427
ag5427
ag5462
ag5461
aS'Ella no pensar\xc3\xa1'
p5472
ag5465
ag5465
ag5465
ag5464
ag5432
ag5432
ag5463
ag5463
ag5463
aFnan
aFnan
aFnan
aFnan
aFnan
aFnan
aFnan
aFnan
aFnan
aFnan
aFnan
aFnan
aFnan
aFnan
aFnan
aFnan
aFnan
aFnan
aFnan
aFnan
aFnan
aFnan
aFnan
aFnan
aFnan
aFnan
aFnan
aFnan
aFnan
aFnan
aFnan
aFnan
aFnan
aFnan
aFnan
aFnan
aFnan
aFnan
aFnan
aFnan
aFnan
aFnan
aFnan
aFnan
aFnan
aFnan
aFnan
aFnan
aFnan
aFnan
aFnan
aFnan
aFnan
aFnan
aFnan
aFnan
aFnan
aFnan
aFnan
aFnan
aFnan
aFnan
aFnan
aFnan
aFnan
aFnan
aFnan
aFnan
aFnan
aFnan
aFnan
aFnan
aFnan
aFnan
aFnan
aFnan
aFnan
aFnan
aFnan
aFnan
aFnan
aFnan
aFnan
aFnan
aFnan
aFnan
aFnan
aFnan
aFnan
aFnan
aFnan
aFnan
aFnan
aFnan
aFnan
aFnan
aFnan
aFnan
aFnan
aFnan
aFnan
aFnan
aFnan
aFnan
aFnan
aFnan
aFnan
aFnan
aFnan
aFnan
aFnan
aFnan
aFnan
aFnan
aFnan
aFnan
aFnan
aFnan
aFnan
aFnan
aFnan
aFnan
aFnan
aFnan
aFnan
aFnan
aFnan
aFnan
aFnan
aFnan
aFnan
aFnan
aFnan
aFnan
aFnan
aFnan
aFnan
aFnan
aFnan
aFnan
aFnan
aFnan
aFnan
aFnan
aFnan
aFnan
aFnan
aFnan
aFnan
aFnan
aFnan
aFnan
aFnan
aFnan
aFnan
aFnan
aFnan
aFnan
aFnan
aFnan
aFnan
aFnan
aFnan
aFnan
aFnan
aFnan
aFnan
aFnan
aFnan
aFnan
aFnan
aFnan
aFnan
aFnan
aFnan
aFnan
aFnan
aFnan
aFnan
aFnan
aFnan
aFnan
aFnan
aFnan
aFnan
aFnan
aFnan
aFnan
aFnan
aFnan
aFnan
aFnan
aFnan
aFnan
aFnan
aFnan
aFnan
aFnan
aFnan
aFnan
aFnan
aFnan
aFnan
aFnan
aFnan
aFnan
aFnan
aFnan
aFnan
aFnan
aFnan
aFnan
aFnan
aFnan
aFnan
aFnan
aFnan
aFnan
aFnan
aFnan
aFnan
aFnan
aFnan
aFnan
aFnan
aFnan
aFnan
aFnan
aFnan
aFnan
aFnan
aFnan
aFnan
aFnan
aFnan
aFnan
aFnan
aFnan
aFnan
aFnan
aFnan
aFnan
aFnan
aFnan
aFnan
aFnan
aFnan
aFnan
aFnan
aFnan
aFnan
aFnan
aFnan
aFnan
aFnan
aFnan
aFnan
aFnan
aFnan
aFnan
aFnan
aFnan
aFnan
aFnan
aFnan
aFnan
aFnan
aFnan
aFnan
aFnan
aFnan
aFnan
aFnan
aFnan
aFnan
aFnan
aFnan
aFnan
aFnan
aFnan
aFnan
aFnan
aFnan
aFnan
aFnan
aFnan
aFnan
aFnan
aFnan
aFnan
aFnan
aFnan
aFnan
aFnan
aFnan
aFnan
aFnan
aFnan
aFnan
aFnan
aFnan
aFnan
aFnan
aFnan
aFnan
aFnan
aFnan
aFnan
aFnan
aFnan
aFnan
aFnan
aFnan
aFnan
aFnan
aFnan
aFnan
aFnan
aFnan
aFnan
aFnan
aFnan
aFnan
aFnan
aFnan
aFnan
aFnan
aFnan
aFnan
aFnan
aFnan
aFnan
aFnan
aFnan
aFnan
aFnan
aFnan
aFnan
aFnan
aFnan
aFnan
aFnan
aFnan
aFnan
aFnan
aFnan
aFnan
aFnan
aFnan
aFnan
aFnan
aFnan
aFnan
aFnan
aFnan
aFnan
aFnan
aFnan
aFnan
aFnan
aFnan
aFnan
aFnan
aFnan
aFnan
aFnan
aFnan
aFnan
aFnan
aFnan
aFnan
aFnan
aFnan
aFnan
aFnan
aFnan
aFnan
aFnan
aFnan
aFnan
aFnan
aFnan
aFnan
aFnan
aFnan
aFnan
aFnan
aFnan
aFnan
aFnan
aFnan
aFnan
aFnan
aFnan
aFnan
aFnan
aFnan
aFnan
aFnan
aFnan
aFnan
aFnan
aFnan
aFnan
aFnan
aFnan
aFnan
aFnan
aFnan
aFnan
aFnan
aFnan
aFnan
aFnan
aFnan
atp5473
ba(lp5474
g15
(g16
(dp5475
g18
(lp5476
g20
(g21
(I0
tp5477
g23
tp5478
Rp5479
(I1
(I9
tp5480
g30
I00
S'\x00\x00\x00\x01\x01\x01\x02\x02\x02'
p5481
tp5482
bag20
(g21
(I0
tp5483
g23
tp5484
Rp5485
(I1
(I9
tp5486
g30
I00
S'\x00\x01\x02\x00\x01\x02\x00\x01\x02'
p5487
tp5488
basg41
(lp5489
NaNasg43
(lp5490
g15
(g45
(dp5491
g47
g20
(g48
(I0
tp5492
g23
tp5493
Rp5494
(I1
(I3
tp5495
g55
I00
(lp5496
g59
ag60
ag61
atp5497
bsg63
Nstp5498
Rp5499
ag15
(g45
(dp5500
g47
g20
(g48
(I0
tp5501
g23
tp5502
Rp5503
(I1
(I3
tp5504
g55
I00
(lp5505
g72
ag73
ag74
atp5506
bsg63
Nstp5507
Rp5508
asg78
Nstp5509
Rp5510
a(dp5511
S'0.14.1'
p5512
(dp5513
S'axes'
p5514
g14
sS'blocks'
p5515
(lp5516
(dp5517
S'mgr_locs'
p5518
c__builtin__
slice
p5519
(I0
I9
I1
tp5520
Rp5521
sS'values'
p5522
g91
sasstp5523
bsb.